(dp1
S'output'
p2
S"<type 'exceptions.NameError'> global name 'screen_name' is not defined"
p3
sS'layer'
p4
S'/home/www-data/web2py/applications/init/controllers/dashboard.py'
p5
sS'code'
p6
S'# -*- coding: utf-8 -*-\n# try something like\nfrom twython import Twython\n\n\nAPP_KEY = \'N9Eu9N9iUX4MSHu8ryq8krrnH\'\nAPP_SECRET = \'h5FceeDBpCvDF99FiCyMiaGRefEeZc24pNlyEYG3EAtLNMXEzk\'\n\ndef index():\n    response.title = \'Dashboard\'\n    twitter = Twython(APP_KEY, APP_SECRET, session.USER_OAUTH_TOKEN, session.USER_OAUTH_TOKEN_SECRET)\n    timeline = twitter.get_home_timeline()\n    tweets = [{\'screen_name\':data[\'user\'][\'screen_name\'], \'text\': data[\'text\']} for data in timeline ]\n    return dict(message=("Timeline for @%s" % session.SCREENNAME), timeline=tweets, screen_name=screen_name)\n\nresponse._vars=response._caller(index)\n'
p7
sS'snapshot'
p8
(dp9
S'exception'
p10
(dp11
S'__hash__'
p12
S"<method-wrapper '__hash__' of exceptions.NameError object>"
p13
sS'__setattr__'
p14
S"<method-wrapper '__setattr__' of exceptions.NameError object>"
p15
sS'__reduce_ex__'
p16
S'<built-in method __reduce_ex__ of exceptions.NameError object>'
p17
sS'__getslice__'
p18
S"<method-wrapper '__getslice__' of exceptions.NameError object>"
p19
sS'__getitem__'
p20
S"<method-wrapper '__getitem__' of exceptions.NameError object>"
p21
sS'__setstate__'
p22
S'<built-in method __setstate__ of exceptions.NameError object>'
p23
sS'args'
p24
S'("global name \'screen_name\' is not defined",)'
p25
sS'__reduce__'
p26
S'<built-in method __reduce__ of exceptions.NameError object>'
p27
sS'__str__'
p28
S"<method-wrapper '__str__' of exceptions.NameError object>"
p29
sS'__format__'
p30
S'<built-in method __format__ of exceptions.NameError object>'
p31
sS'__getattribute__'
p32
S"<method-wrapper '__getattribute__' of exceptions.NameError object>"
p33
sS'__class__'
p34
S"<type 'exceptions.NameError'>"
p35
sS'__unicode__'
p36
S'<built-in method __unicode__ of exceptions.NameError object>'
p37
sS'__delattr__'
p38
S"<method-wrapper '__delattr__' of exceptions.NameError object>"
p39
sS'__subclasshook__'
p40
S'<built-in method __subclasshook__ of type object>'
p41
sS'__repr__'
p42
S"<method-wrapper '__repr__' of exceptions.NameError object>"
p43
sS'__dict__'
p44
S'{}'
p45
sS'__sizeof__'
p46
S'<built-in method __sizeof__ of exceptions.NameError object>'
p47
sS'__doc__'
p48
S"'Name not found globally.'"
p49
sS'__init__'
p50
S"<method-wrapper '__init__' of exceptions.NameError object>"
p51
sS'__new__'
p52
S'<built-in method __new__ of type object>'
p53
ssS'evalue'
p54
S"global name 'screen_name' is not defined"
p55
sS'request'
p56
cgluon.html
XML_unpickle
p57
(S'szy\x00\x00<div><table><tr><td style="font-weight:bold;vertical-align:top;">ajax</td><td style="vertical-align:top;">:</td><td><div>False</div></td></tr><tr><td style="font-weight:bold;vertical-align:top;">application</td><td style="vertical-align:top;">:</td><td><div>init</div></td></tr><tr><td style="font-weight:bold;vertical-align:top;">args</td><td style="vertical-align:top;">:</td><td><div><table></table></div></td></tr><tr><td style="font-weight:bold;vertical-align:top;">cid</td><td style="vertical-align:top;">:</td><td><div>None</div></td></tr><tr><td style="font-weight:bold;vertical-align:top;">client</td><td style="vertical-align:top;">:</td><td><div>192.168.56.1</div></td></tr><tr><td style="font-weight:bold;vertical-align:top;">controller</td><td style="vertical-align:top;">:</td><td><div>dashboard</div></td></tr><tr><td style="font-weight:bold;vertical-align:top;">cookies</td><td style="vertical-align:top;">:</td><td><div><table><tr><td style="font-weight:bold;vertical-align:top;">session_id_admin</td><td style="vertical-align:top;">:</td><td><div>192.168.56.1-d12a00ed-961a-4f3a-a3f4-955dd0f254c5<table><tr><td style="font-weight:bold;vertical-align:top;">comment</td><td style="vertical-align:top;">:</td><td><div></div></td></tr><tr><td style="font-weight:bold;vertical-align:top;">domain</td><td style="vertical-align:top;">:</td><td><div></div></td></tr><tr><td style="font-weight:bold;vertical-align:top;">expires</td><td style="vertical-align:top;">:</td><td><div></div></td></tr><tr><td style="font-weight:bold;vertical-align:top;">httponly</td><td style="vertical-align:top;">:</td><td><div></div></td></tr><tr><td style="font-weight:bold;vertical-align:top;">max-age</td><td style="vertical-align:top;">:</td><td><div></div></td></tr><tr><td style="font-weight:bold;vertical-align:top;">path</td><td style="vertical-align:top;">:</td><td><div></div></td></tr><tr><td style="font-weight:bold;vertical-align:top;">secure</td><td style="vertical-align:top;">:</td><td><div></div></td></tr><tr><td style="font-weight:bold;vertical-align:top;">version</td><td style="vertical-align:top;">:</td><td><div></div></td></tr></table></div></td></tr><tr><td style="font-weight:bold;vertical-align:top;">session_id_hrcexplorer</td><td style="vertical-align:top;">:</td><td><div>192.168.56.1-9b2fefff-e522-4932-b1af-6e0f5be6f0a1<table><tr><td style="font-weight:bold;vertical-align:top;">comment</td><td style="vertical-align:top;">:</td><td><div></div></td></tr><tr><td style="font-weight:bold;vertical-align:top;">domain</td><td style="vertical-align:top;">:</td><td><div></div></td></tr><tr><td style="font-weight:bold;vertical-align:top;">expires</td><td style="vertical-align:top;">:</td><td><div></div></td></tr><tr><td style="font-weight:bold;vertical-align:top;">httponly</td><td style="vertical-align:top;">:</td><td><div></div></td></tr><tr><td style="font-weight:bold;vertical-align:top;">max-age</td><td style="vertical-align:top;">:</td><td><div></div></td></tr><tr><td style="font-weight:bold;vertical-align:top;">path</td><td style="vertical-align:top;">:</td><td><div></div></td></tr><tr><td style="font-weight:bold;vertical-align:top;">secure</td><td style="vertical-align:top;">:</td><td><div></div></td></tr><tr><td style="font-weight:bold;vertical-align:top;">version</td><td style="vertical-align:top;">:</td><td><div></div></td></tr></table></div></td></tr><tr><td style="font-weight:bold;vertical-align:top;">session_id_init</td><td style="vertical-align:top;">:</td><td><div>192.168.56.1-e46fd0c0-84e7-47a1-87c7-eed5f32c68fe<table><tr><td style="font-weight:bold;vertical-align:top;">comment</td><td style="vertical-align:top;">:</td><td><div></div></td></tr><tr><td style="font-weight:bold;vertical-align:top;">domain</td><td style="vertical-align:top;">:</td><td><div></div></td></tr><tr><td style="font-weight:bold;vertical-align:top;">expires</td><td style="vertical-align:top;">:</td><td><div></div></td></tr><tr><td style="font-weight:bold;vertical-align:top;">httponly</td><td style="vertical-align:top;">:</td><td><div></div></td></tr><tr><td style="font-weight:bold;vertical-align:top;">max-age</td><td style="vertical-align:top;">:</td><td><div></div></td></tr><tr><td style="font-weight:bold;vertical-align:top;">path</td><td style="vertical-align:top;">:</td><td><div></div></td></tr><tr><td style="font-weight:bold;vertical-align:top;">secure</td><td style="vertical-align:top;">:</td><td><div></div></td></tr><tr><td style="font-weight:bold;vertical-align:top;">version</td><td style="vertical-align:top;">:</td><td><div></div></td></tr></table></div></td></tr><tr><td style="font-weight:bold;vertical-align:top;">session_id_jetexplorer</td><td style="vertical-align:top;">:</td><td><div>192.168.56.1-a7a6f093-5af1-4864-a620-0f1451f0c7b6<table><tr><td style="font-weight:bold;vertical-align:top;">comment</td><td style="vertical-align:top;">:</td><td><div></div></td></tr><tr><td style="font-weight:bold;vertical-align:top;">domain</td><td style="vertical-align:top;">:</td><td><div></div></td></tr><tr><td style="font-weight:bold;vertical-align:top;">expires</td><td style="vertical-align:top;">:</td><td><div></div></td></tr><tr><td style="font-weight:bold;vertical-align:top;">httponly</td><td style="vertical-align:top;">:</td><td><div></div></td></tr><tr><td style="font-weight:bold;vertical-align:top;">max-age</td><td style="vertical-align:top;">:</td><td><div></div></td></tr><tr><td style="font-weight:bold;vertical-align:top;">path</td><td style="vertical-align:top;">:</td><td><div></div></td></tr><tr><td style="font-weight:bold;vertical-align:top;">secure</td><td style="vertical-align:top;">:</td><td><div></div></td></tr><tr><td style="font-weight:bold;vertical-align:top;">version</td><td style="vertical-align:top;">:</td><td><div></div></td></tr></table></div></td></tr><tr><td style="font-weight:bold;vertical-align:top;">session_id_lockheed</td><td style="vertical-align:top;">:</td><td><div>192.168.56.1-1b96a350-49cc-46e2-8fe2-1ea03dc887f0<table><tr><td style="font-weight:bold;vertical-align:top;">comment</td><td style="vertical-align:top;">:</td><td><div></div></td></tr><tr><td style="font-weight:bold;vertical-align:top;">domain</td><td style="vertical-align:top;">:</td><td><div></div></td></tr><tr><td style="font-weight:bold;vertical-align:top;">expires</td><td style="vertical-align:top;">:</td><td><div></div></td></tr><tr><td style="font-weight:bold;vertical-align:top;">httponly</td><td style="vertical-align:top;">:</td><td><div></div></td></tr><tr><td style="font-weight:bold;vertical-align:top;">max-age</td><td style="vertical-align:top;">:</td><td><div></div></td></tr><tr><td style="font-weight:bold;vertical-align:top;">path</td><td style="vertical-align:top;">:</td><td><div></div></td></tr><tr><td style="font-weight:bold;vertical-align:top;">secure</td><td style="vertical-align:top;">:</td><td><div></div></td></tr><tr><td style="font-weight:bold;vertical-align:top;">version</td><td style="vertical-align:top;">:</td><td><div></div></td></tr></table></div></td></tr><tr><td style="font-weight:bold;vertical-align:top;">session_id_welcome</td><td style="vertical-align:top;">:</td><td><div>192.168.56.1-1df545f1-d577-4d48-ae1d-3cc8ff8b001d<table><tr><td style="font-weight:bold;vertical-align:top;">comment</td><td style="vertical-align:top;">:</td><td><div></div></td></tr><tr><td style="font-weight:bold;vertical-align:top;">domain</td><td style="vertical-align:top;">:</td><td><div></div></td></tr><tr><td style="font-weight:bold;vertical-align:top;">expires</td><td style="vertical-align:top;">:</td><td><div></div></td></tr><tr><td style="font-weight:bold;vertical-align:top;">httponly</td><td style="vertical-align:top;">:</td><td><div></div></td></tr><tr><td style="font-weight:bold;vertical-align:top;">max-age</td><td style="vertical-align:top;">:</td><td><div></div></td></tr><tr><td style="font-weight:bold;vertical-align:top;">path</td><td style="vertical-align:top;">:</td><td><div></div></td></tr><tr><td style="font-weight:bold;vertical-align:top;">secure</td><td style="vertical-align:top;">:</td><td><div></div></td></tr><tr><td style="font-weight:bold;vertical-align:top;">version</td><td style="vertical-align:top;">:</td><td><div></div></td></tr></table></div></td></tr></table></div></td></tr><tr><td style="font-weight:bold;vertical-align:top;">env</td><td style="vertical-align:top;">:</td><td><div><table><tr><td style="font-weight:bold;vertical-align:top;">CONTEXT_DOCUMENT_ROOT</td><td style="vertical-align:top;">:</td><td><div>/var/www</div></td></tr><tr><td style="font-weight:bold;vertical-align:top;">CONTEXT_PREFIX</td><td style="vertical-align:top;">:</td><td><div></div></td></tr><tr><td style="font-weight:bold;vertical-align:top;">DOCUMENT_ROOT</td><td style="vertical-align:top;">:</td><td><div>/var/www</div></td></tr><tr><td style="font-weight:bold;vertical-align:top;">GATEWAY_INTERFACE</td><td style="vertical-align:top;">:</td><td><div>CGI/1.1</div></td></tr><tr><td style="font-weight:bold;vertical-align:top;">HTTP_ACCEPT</td><td style="vertical-align:top;">:</td><td><div>text/html,application/xhtml+xml,application/xml;q=0.9,image/webp,*/*;q=0.8</div></td></tr><tr><td style="font-weight:bold;vertical-align:top;">HTTP_ACCEPT_ENCODING</td><td style="vertical-align:top;">:</td><td><div>gzip, deflate, sdch</div></td></tr><tr><td style="font-weight:bold;vertical-align:top;">HTTP_ACCEPT_LANGUAGE</td><td style="vertical-align:top;">:</td><td><div>en-US,en;q=0.8,pl;q=0.6</div></td></tr><tr><td style="font-weight:bold;vertical-align:top;">HTTP_CACHE_CONTROL</td><td style="vertical-align:top;">:</td><td><div>max-age=0</div></td></tr><tr><td style="font-weight:bold;vertical-align:top;">HTTP_CONNECTION</td><td style="vertical-align:top;">:</td><td><div>keep-alive</div></td></tr><tr><td style="font-weight:bold;vertical-align:top;">HTTP_COOKIE</td><td style="vertical-align:top;">:</td><td><div>session_id_lockheed=192.168.56.1-1b96a350-49cc-46e2-8fe2-1ea03dc887f0; session_id_hrcexplorer=192.168.56.1-9b2fefff-e522-4932-b1af-6e0f5be6f0a1; session_id_jetexplorer=192.168.56.1-a7a6f093-5af1-4864-a620-0f1451f0c7b6; session_id_welcome=192.168.56.1-1df545f1-d577-4d48-ae1d-3cc8ff8b001d; session_id_init=192.168.56.1-e46fd0c0-84e7-47a1-87c7-eed5f32c68fe; session_id_admin=192.168.56.1-d12a00ed-961a-4f3a-a3f4-955dd0f254c5</div></td></tr><tr><td style="font-weight:bold;vertical-align:top;">HTTP_HOST</td><td style="vertical-align:top;">:</td><td><div>devbox</div></td></tr><tr><td style="font-weight:bold;vertical-align:top;">HTTP_UPGRADE_INSECURE_REQUESTS</td><td style="vertical-align:top;">:</td><td><div>1</div></td></tr><tr><td style="font-weight:bold;vertical-align:top;">HTTP_USER_AGENT</td><td style="vertical-align:top;">:</td><td><div>Mozilla/5.0 (Macintosh; Intel Mac OS X 10_9_5) AppleWebKit/537.36 (KHTML, like Gecko) Chrome/44.0.2403.157 Safari/537.36</div></td></tr><tr><td style="font-weight:bold;vertical-align:top;">PATH_INFO</td><td style="vertical-align:top;">:</td><td><div>/init/dashboard</div></td></tr><tr><td style="font-weight:bold;vertical-align:top;">PATH_TRANSLATED</td><td style="vertical-align:top;">:</td><td><div>/home/www-data/web2py/wsgihandler.py/init/dashboard</div></td></tr><tr><td style="font-weight:bold;vertical-align:top;">QUERY_STRING</td><td style="vertical-align:top;">:</td><td><div></div></td></tr><tr><td style="font-weight:bold;vertical-align:top;">REMOTE_ADDR</td><td style="vertical-align:top;">:</td><td><div>192.168.56.1</div></td></tr><tr><td style="font-weight:bold;vertical-align:top;">REMOTE_PORT</td><td style="vertical-align:top;">:</td><td><div>57897</div></td></tr><tr><td style="font-weight:bold;vertical-align:top;">REQUEST_METHOD</td><td style="vertical-align:top;">:</td><td><div>GET</div></td></tr><tr><td style="font-weight:bold;vertical-align:top;">REQUEST_SCHEME</td><td style="vertical-align:top;">:</td><td><div>https</div></td></tr><tr><td style="font-weight:bold;vertical-align:top;">REQUEST_URI</td><td style="vertical-align:top;">:</td><td><div>/init/dashboard</div></td></tr><tr><td style="font-weight:bold;vertical-align:top;">SCRIPT_FILENAME</td><td style="vertical-align:top;">:</td><td><div>/home/www-data/web2py/wsgihandler.py</div></td></tr><tr><td style="font-weight:bold;vertical-align:top;">SCRIPT_NAME</td><td style="vertical-align:top;">:</td><td><div></div></td></tr><tr><td style="font-weight:bold;vertical-align:top;">SERVER_ADDR</td><td style="vertical-align:top;">:</td><td><div>192.168.56.101</div></td></tr><tr><td style="font-weight:bold;vertical-align:top;">SERVER_ADMIN</td><td style="vertical-align:top;">:</td><td><div>[no address given]</div></td></tr><tr><td style="font-weight:bold;vertical-align:top;">SERVER_NAME</td><td style="vertical-align:top;">:</td><td><div>devbox</div></td></tr><tr><td style="font-weight:bold;vertical-align:top;">SERVER_PORT</td><td style="vertical-align:top;">:</td><td><div>443</div></td></tr><tr><td style="font-weight:bold;vertical-align:top;">SERVER_PROTOCOL</td><td style="vertical-align:top;">:</td><td><div>HTTP/1.1</div></td></tr><tr><td style="font-weight:bold;vertical-align:top;">SERVER_SIGNATURE</td><td style="vertical-align:top;">:</td><td><div>&lt;address&gt;Apache/2.4.7 (Ubuntu) Server at devbox Port 443&lt;/address&gt;\n</div></td></tr><tr><td style="font-weight:bold;vertical-align:top;">SERVER_SOFTWARE</td><td style="vertical-align:top;">:</td><td><div>Apache/2.4.7 (Ubuntu)</div></td></tr><tr><td style="font-weight:bold;vertical-align:top;">SSL_TLS_SNI</td><td style="vertical-align:top;">:</td><td><div>devbox</div></td></tr><tr><td style="font-weight:bold;vertical-align:top;">app_folders</td><td style="vertical-align:top;">:</td><td><div>set([&#x27;/home/www-data/web2py/applications/admin/&#x27;, &#x27;/home/www-data/web2py/applications/init/&#x27;])</div></td></tr><tr><td style="font-weight:bold;vertical-align:top;">applications_parent</td><td style="vertical-align:top;">:</td><td><div>/home/www-data/web2py</div></td></tr><tr><td style="font-weight:bold;vertical-align:top;">context_document_root</td><td style="vertical-align:top;">:</td><td><div>/var/www</div></td></tr><tr><td style="font-weight:bold;vertical-align:top;">context_prefix</td><td style="vertical-align:top;">:</td><td><div></div></td></tr><tr><td style="font-weight:bold;vertical-align:top;">db_sessions</td><td style="vertical-align:top;">:</td><td><div>set([])</div></td></tr><tr><td style="font-weight:bold;vertical-align:top;">debugging</td><td style="vertical-align:top;">:</td><td><div>True</div></td></tr><tr><td style="font-weight:bold;vertical-align:top;">document_root</td><td style="vertical-align:top;">:</td><td><div>/var/www</div></td></tr><tr><td style="font-weight:bold;vertical-align:top;">gateway_interface</td><td style="vertical-align:top;">:</td><td><div>CGI/1.1</div></td></tr><tr><td style="font-weight:bold;vertical-align:top;">gluon_parent</td><td style="vertical-align:top;">:</td><td><div>/home/www-data/web2py</div></td></tr><tr><td style="font-weight:bold;vertical-align:top;">http_accept</td><td style="vertical-align:top;">:</td><td><div>text/html,application/xhtml+xml,application/xml;q=0.9,image/webp,*/*;q=0.8</div></td></tr><tr><td style="font-weight:bold;vertical-align:top;">http_accept_encoding</td><td style="vertical-align:top;">:</td><td><div>gzip, deflate, sdch</div></td></tr><tr><td style="font-weight:bold;vertical-align:top;">http_accept_language</td><td style="vertical-align:top;">:</td><td><div>en-US,en;q=0.8,pl;q=0.6</div></td></tr><tr><td style="font-weight:bold;vertical-align:top;">http_cache_control</td><td style="vertical-align:top;">:</td><td><div>max-age=0</div></td></tr><tr><td style="font-weight:bold;vertical-align:top;">http_connection</td><td style="vertical-align:top;">:</td><td><div>keep-alive</div></td></tr><tr><td style="font-weight:bold;vertical-align:top;">http_cookie</td><td style="vertical-align:top;">:</td><td><div>session_id_lockheed=192.168.56.1-1b96a350-49cc-46e2-8fe2-1ea03dc887f0; session_id_hrcexplorer=192.168.56.1-9b2fefff-e522-4932-b1af-6e0f5be6f0a1; session_id_jetexplorer=192.168.56.1-a7a6f093-5af1-4864-a620-0f1451f0c7b6; session_id_welcome=192.168.56.1-1df545f1-d577-4d48-ae1d-3cc8ff8b001d; session_id_init=192.168.56.1-e46fd0c0-84e7-47a1-87c7-eed5f32c68fe; session_id_admin=192.168.56.1-d12a00ed-961a-4f3a-a3f4-955dd0f254c5</div></td></tr><tr><td style="font-weight:bold;vertical-align:top;">http_host</td><td style="vertical-align:top;">:</td><td><div>devbox</div></td></tr><tr><td style="font-weight:bold;vertical-align:top;">http_upgrade_insecure_requests</td><td style="vertical-align:top;">:</td><td><div>1</div></td></tr><tr><td style="font-weight:bold;vertical-align:top;">http_user_agent</td><td style="vertical-align:top;">:</td><td><div>Mozilla/5.0 (Macintosh; Intel Mac OS X 10_9_5) AppleWebKit/537.36 (KHTML, like Gecko) Chrome/44.0.2403.157 Safari/537.36</div></td></tr><tr><td style="font-weight:bold;vertical-align:top;">is_jython</td><td style="vertical-align:top;">:</td><td><div>False</div></td></tr><tr><td style="font-weight:bold;vertical-align:top;">is_pypy</td><td style="vertical-align:top;">:</td><td><div>False</div></td></tr><tr><td style="font-weight:bold;vertical-align:top;">is_source</td><td style="vertical-align:top;">:</td><td><div>True</div></td></tr><tr><td style="font-weight:bold;vertical-align:top;">local_hosts</td><td style="vertical-align:top;">:</td><td><div><table><tr><td><div>devbox</div></td></tr><tr><td><div>::1</div></td></tr><tr><td><div>127.0.1.1</div></td></tr><tr><td><div>::ffff:127.0.0.1</div></td></tr><tr><td><div>127.0.0.1</div></td></tr></table></div></td></tr><tr><td style="font-weight:bold;vertical-align:top;">mod_wsgi.application_group</td><td style="vertical-align:top;">:</td><td><div>127.0.1.1|</div></td></tr><tr><td style="font-weight:bold;vertical-align:top;">mod_wsgi.callable_object</td><td style="vertical-align:top;">:</td><td><div>application</div></td></tr><tr><td style="font-weight:bold;vertical-align:top;">mod_wsgi.enable_sendfile</td><td style="vertical-align:top;">:</td><td><div>0</div></td></tr><tr><td style="font-weight:bold;vertical-align:top;">mod_wsgi.handler_script</td><td style="vertical-align:top;">:</td><td><div></div></td></tr><tr><td style="font-weight:bold;vertical-align:top;">mod_wsgi.input_chunked</td><td style="vertical-align:top;">:</td><td><div>0</div></td></tr><tr><td style="font-weight:bold;vertical-align:top;">mod_wsgi.listener_host</td><td style="vertical-align:top;">:</td><td><div></div></td></tr><tr><td style="font-weight:bold;vertical-align:top;">mod_wsgi.listener_port</td><td style="vertical-align:top;">:</td><td><div>443</div></td></tr><tr><td style="font-weight:bold;vertical-align:top;">mod_wsgi.process_group</td><td style="vertical-align:top;">:</td><td><div>web2py</div></td></tr><tr><td style="font-weight:bold;vertical-align:top;">mod_wsgi.queue_start</td><td style="vertical-align:top;">:</td><td><div>1441079352420720</div></td></tr><tr><td style="font-weight:bold;vertical-align:top;">mod_wsgi.request_handler</td><td style="vertical-align:top;">:</td><td><div>wsgi-script</div></td></tr><tr><td style="font-weight:bold;vertical-align:top;">mod_wsgi.script_reloading</td><td style="vertical-align:top;">:</td><td><div>1</div></td></tr><tr><td style="font-weight:bold;vertical-align:top;">mod_wsgi.version</td><td style="vertical-align:top;">:</td><td><div><table><tr><td><div>3</div></td></tr><tr><td><div>4</div></td></tr></table></div></td></tr><tr><td style="font-weight:bold;vertical-align:top;">mod_wsgi_application_group</td><td style="vertical-align:top;">:</td><td><div>127.0.1.1|</div></td></tr><tr><td style="font-weight:bold;vertical-align:top;">mod_wsgi_callable_object</td><td style="vertical-align:top;">:</td><td><div>application</div></td></tr><tr><td style="font-weight:bold;vertical-align:top;">mod_wsgi_enable_sendfile</td><td style="vertical-align:top;">:</td><td><div>0</div></td></tr><tr><td style="font-weight:bold;vertical-align:top;">mod_wsgi_handler_script</td><td style="vertical-align:top;">:</td><td><div></div></td></tr><tr><td style="font-weight:bold;vertical-align:top;">mod_wsgi_input_chunked</td><td style="vertical-align:top;">:</td><td><div>0</div></td></tr><tr><td style="font-weight:bold;vertical-align:top;">mod_wsgi_listener_host</td><td style="vertical-align:top;">:</td><td><div></div></td></tr><tr><td style="font-weight:bold;vertical-align:top;">mod_wsgi_listener_port</td><td style="vertical-align:top;">:</td><td><div>443</div></td></tr><tr><td style="font-weight:bold;vertical-align:top;">mod_wsgi_process_group</td><td style="vertical-align:top;">:</td><td><div>web2py</div></td></tr><tr><td style="font-weight:bold;vertical-align:top;">mod_wsgi_queue_start</td><td style="vertical-align:top;">:</td><td><div>1441079352420720</div></td></tr><tr><td style="font-weight:bold;vertical-align:top;">mod_wsgi_request_handler</td><td style="vertical-align:top;">:</td><td><div>wsgi-script</div></td></tr><tr><td style="font-weight:bold;vertical-align:top;">mod_wsgi_script_reloading</td><td style="vertical-align:top;">:</td><td><div>1</div></td></tr><tr><td style="font-weight:bold;vertical-align:top;">mod_wsgi_version</td><td style="vertical-align:top;">:</td><td><div><table><tr><td><div>3</div></td></tr><tr><td><div>4</div></td></tr></table></div></td></tr><tr><td style="font-weight:bold;vertical-align:top;">path_info</td><td style="vertical-align:top;">:</td><td><div>/init/dashboard</div></td></tr><tr><td style="font-weight:bold;vertical-align:top;">path_translated</td><td style="vertical-align:top;">:</td><td><div>/home/www-data/web2py/wsgihandler.py/init/dashboard</div></td></tr><tr><td style="font-weight:bold;vertical-align:top;">query_string</td><td style="vertical-align:top;">:</td><td><div></div></td></tr><tr><td style="font-weight:bold;vertical-align:top;">remote_addr</td><td style="vertical-align:top;">:</td><td><div>192.168.56.1</div></td></tr><tr><td style="font-weight:bold;vertical-align:top;">remote_port</td><td style="vertical-align:top;">:</td><td><div>57897</div></td></tr><tr><td style="font-weight:bold;vertical-align:top;">request_method</td><td style="vertical-align:top;">:</td><td><div>GET</div></td></tr><tr><td style="font-weight:bold;vertical-align:top;">request_scheme</td><td style="vertical-align:top;">:</td><td><div>https</div></td></tr><tr><td style="font-weight:bold;vertical-align:top;">request_uri</td><td style="vertical-align:top;">:</td><td><div>/init/dashboard</div></td></tr><tr><td style="font-weight:bold;vertical-align:top;">script_filename</td><td style="vertical-align:top;">:</td><td><div>/home/www-data/web2py/wsgihandler.py</div></td></tr><tr><td style="font-weight:bold;vertical-align:top;">script_name</td><td style="vertical-align:top;">:</td><td><div></div></td></tr><tr><td style="font-weight:bold;vertical-align:top;">server_addr</td><td style="vertical-align:top;">:</td><td><div>192.168.56.101</div></td></tr><tr><td style="font-weight:bold;vertical-align:top;">server_admin</td><td style="vertical-align:top;">:</td><td><div>[no address given]</div></td></tr><tr><td style="font-weight:bold;vertical-align:top;">server_name</td><td style="vertical-align:top;">:</td><td><div>devbox</div></td></tr><tr><td style="font-weight:bold;vertical-align:top;">server_port</td><td style="vertical-align:top;">:</td><td><div>443</div></td></tr><tr><td style="font-weight:bold;vertical-align:top;">server_protocol</td><td style="vertical-align:top;">:</td><td><div>HTTP/1.1</div></td></tr><tr><td style="font-weight:bold;vertical-align:top;">server_signature</td><td style="vertical-align:top;">:</td><td><div>&lt;address&gt;Apache/2.4.7 (Ubuntu) Server at devbox Port 443&lt;/address&gt;\n</div></td></tr><tr><td style="font-weight:bold;vertical-align:top;">server_software</td><td style="vertical-align:top;">:</td><td><div>Apache/2.4.7 (Ubuntu)</div></td></tr><tr><td style="font-weight:bold;vertical-align:top;">ssl_tls_sni</td><td style="vertical-align:top;">:</td><td><div>devbox</div></td></tr><tr><td style="font-weight:bold;vertical-align:top;">web2py_path</td><td style="vertical-align:top;">:</td><td><div>/home/www-data/web2py</div></td></tr><tr><td style="font-weight:bold;vertical-align:top;">web2py_version</td><td style="vertical-align:top;">:</td><td><div>2.12.3-stable+timestamp.2015.08.19.00.18.03</div></td></tr><tr><td style="font-weight:bold;vertical-align:top;">wsgi.errors</td><td style="vertical-align:top;">:</td><td><div>&lt;mod_wsgi.Log object at 0x7f046bae0fb0&gt;</div></td></tr><tr><td style="font-weight:bold;vertical-align:top;">wsgi.file_wrapper</td><td style="vertical-align:top;">:</td><td><div>&lt;built-in method file_wrapper of mod_wsgi.Adapter object at 0x7f04806d7198&gt;</div></td></tr><tr><td style="font-weight:bold;vertical-align:top;">wsgi.input</td><td style="vertical-align:top;">:</td><td><div>&lt;mod_wsgi.Input object at 0x7f046bae0970&gt;</div></td></tr><tr><td style="font-weight:bold;vertical-align:top;">wsgi.multiprocess</td><td style="vertical-align:top;">:</td><td><div>False</div></td></tr><tr><td style="font-weight:bold;vertical-align:top;">wsgi.multithread</td><td style="vertical-align:top;">:</td><td><div>True</div></td></tr><tr><td style="font-weight:bold;vertical-align:top;">wsgi.run_once</td><td style="vertical-align:top;">:</td><td><div>False</div></td></tr><tr><td style="font-weight:bold;vertical-align:top;">wsgi.url_scheme</td><td style="vertical-align:top;">:</td><td><div>https</div></td></tr><tr><td style="font-weight:bold;vertical-align:top;">wsgi.version</td><td style="vertical-align:top;">:</td><td><div><table><tr><td><div>1</div></td></tr><tr><td><div>0</div></td></tr></table></div></td></tr><tr><td style="font-weight:bold;vertical-align:top;">wsgi_errors</td><td style="vertical-align:top;">:</td><td><div>&lt;mod_wsgi.Log object at 0x7f046bae0fb0&gt;</div></td></tr><tr><td style="font-weight:bold;vertical-align:top;">wsgi_file_wrapper</td><td style="vertical-align:top;">:</td><td><div>&lt;built-in method file_wrapper of mod_wsgi.Adapter object at 0x7f04806d7198&gt;</div></td></tr><tr><td style="font-weight:bold;vertical-align:top;">wsgi_input</td><td style="vertical-align:top;">:</td><td><div>&lt;mod_wsgi.Input object at 0x7f046bae0970&gt;</div></td></tr><tr><td style="font-weight:bold;vertical-align:top;">wsgi_multiprocess</td><td style="vertical-align:top;">:</td><td><div>False</div></td></tr><tr><td style="font-weight:bold;vertical-align:top;">wsgi_multithread</td><td style="vertical-align:top;">:</td><td><div>True</div></td></tr><tr><td style="font-weight:bold;vertical-align:top;">wsgi_run_once</td><td style="vertical-align:top;">:</td><td><div>False</div></td></tr><tr><td style="font-weight:bold;vertical-align:top;">wsgi_url_scheme</td><td style="vertical-align:top;">:</td><td><div>https</div></td></tr><tr><td style="font-weight:bold;vertical-align:top;">wsgi_version</td><td style="vertical-align:top;">:</td><td><div><table><tr><td><div>1</div></td></tr><tr><td><div>0</div></td></tr></table></div></td></tr></table></div></td></tr><tr><td style="font-weight:bold;vertical-align:top;">extension</td><td style="vertical-align:top;">:</td><td><div>html</div></td></tr><tr><td style="font-weight:bold;vertical-align:top;">folder</td><td style="vertical-align:top;">:</td><td><div>/home/www-data/web2py/applications/init/</div></td></tr><tr><td style="font-weight:bold;vertical-align:top;">function</td><td style="vertical-align:top;">:</td><td><div>index</div></td></tr><tr><td style="font-weight:bold;vertical-align:top;">global_settings</td><td style="vertical-align:top;">:</td><td><div><table><tr><td style="font-weight:bold;vertical-align:top;">app_folders</td><td style="vertical-align:top;">:</td><td><div>set([&#x27;/home/www-data/web2py/applications/admin/&#x27;, &#x27;/home/www-data/web2py/applications/init/&#x27;])</div></td></tr><tr><td style="font-weight:bold;vertical-align:top;">applications_parent</td><td style="vertical-align:top;">:</td><td><div>/home/www-data/web2py</div></td></tr><tr><td style="font-weight:bold;vertical-align:top;">db_sessions</td><td style="vertical-align:top;">:</td><td><div>set([])</div></td></tr><tr><td style="font-weight:bold;vertical-align:top;">debugging</td><td style="vertical-align:top;">:</td><td><div>True</div></td></tr><tr><td style="font-weight:bold;vertical-align:top;">gluon_parent</td><td style="vertical-align:top;">:</td><td><div>/home/www-data/web2py</div></td></tr><tr><td style="font-weight:bold;vertical-align:top;">is_jython</td><td style="vertical-align:top;">:</td><td><div>False</div></td></tr><tr><td style="font-weight:bold;vertical-align:top;">is_pypy</td><td style="vertical-align:top;">:</td><td><div>False</div></td></tr><tr><td style="font-weight:bold;vertical-align:top;">is_source</td><td style="vertical-align:top;">:</td><td><div>True</div></td></tr><tr><td style="font-weight:bold;vertical-align:top;">local_hosts</td><td style="vertical-align:top;">:</td><td><div><table><tr><td><div>devbox</div></td></tr><tr><td><div>::1</div></td></tr><tr><td><div>127.0.1.1</div></td></tr><tr><td><div>::ffff:127.0.0.1</div></td></tr><tr><td><div>127.0.0.1</div></td></tr></table></div></td></tr><tr><td style="font-weight:bold;vertical-align:top;">web2py_version</td><td style="vertical-align:top;">:</td><td><div>2.12.3-stable+timestamp.2015.08.19.00.18.03</div></td></tr></table></div></td></tr><tr><td style="font-weight:bold;vertical-align:top;">is_https</td><td style="vertical-align:top;">:</td><td><div>True</div></td></tr><tr><td style="font-weight:bold;vertical-align:top;">is_local</td><td style="vertical-align:top;">:</td><td><div>False</div></td></tr><tr><td style="font-weight:bold;vertical-align:top;">is_restful</td><td style="vertical-align:top;">:</td><td><div>False</div></td></tr><tr><td style="font-weight:bold;vertical-align:top;">is_sheduler</td><td style="vertical-align:top;">:</td><td><div>None</div></td></tr><tr><td style="font-weight:bold;vertical-align:top;">is_shell</td><td style="vertical-align:top;">:</td><td><div>None</div></td></tr><tr><td style="font-weight:bold;vertical-align:top;">now</td><td style="vertical-align:top;">:</td><td><div>datetime.datetime(2015, 8, 31, 20, 49, 12, 421062)</div></td></tr><tr><td style="font-weight:bold;vertical-align:top;">raw_args</td><td style="vertical-align:top;">:</td><td><div></div></td></tr><tr><td style="font-weight:bold;vertical-align:top;">raw_extension</td><td style="vertical-align:top;">:</td><td><div>None</div></td></tr><tr><td style="font-weight:bold;vertical-align:top;">url</td><td style="vertical-align:top;">:</td><td><div>/init/dashboard</div></td></tr><tr><td style="font-weight:bold;vertical-align:top;">utcnow</td><td style="vertical-align:top;">:</td><td><div>datetime.datetime(2015, 9, 1, 3, 49, 12, 421074)</div></td></tr><tr><td style="font-weight:bold;vertical-align:top;">wsgi</td><td style="vertical-align:top;">:</td><td><div>&lt;gluon.main.LazyWSGI object at 0x7f0480e15e10&gt;</div></td></tr></table></div>'
tRp58
sS'frames'
p59
(lp60
(dp61
S'file'
p62
S'/home/www-data/web2py/gluon/restricted.py'
p63
sS'dump'
p64
(dp65
S'environment'
p66
S"{'A': <class 'gluon.html.A'>, 'ANY_OF': <class 'gluon.validators.ANY_OF'>, 'APP_KEY': 'N9Eu9N9iUX4MSHu8ryq8krrnH', 'APP_SECRET': 'h5FceeDBpCvDF99FiCyMiaGRefEeZc24pNlyEYG3EAtLNMXEzk', 'ASSIGNJS': <function ASSIGNJS>, 'AppConfig': <function AppConfig>, 'Auth': <class 'gluon.tools.Auth'>, 'B': <class 'gluon.html.B'>, 'BEAUTIFY': <class 'gluon.html.BEAUTIFY'>, 'BODY': <class 'gluon.html.BODY'>, ...}"
p67
sS'ccode'
p68
S'<code object <module> at 0x7f04806ea830, file "/...lications/init/controllers/dashboard.py", line 3>'
p69
ssS'lnum'
p70
I227
sS'lines'
p71
(dp72
I224
S'            ccode = code'
p73
sI225
S'        else:'
p74
sI226
S'            ccode = compile2(code, layer)'
p75
sI227
S'        exec ccode in environment'
p76
sI228
S'    except HTTP:'
p77
sI229
S'        raise'
p78
sI230
S'    except RestrictedError:'
p79
sI231
S'        # do not encapsulate (obfuscate) the original RestrictedError'
p80
sI222
S'    try:'
p81
sI223
S'        if isinstance(code, types.CodeType):'
p82
ssS'call'
p83
S"(code='# -*- coding: utf-8 -*-\\n# try something like\\nfro...en_name)\\n\\nresponse._vars=response._caller(index)\\n', environment={'A': <class 'gluon.html.A'>, 'ANY_OF': <class 'gluon.validators.ANY_OF'>, 'APP_KEY': 'N9Eu9N9iUX4MSHu8ryq8krrnH', 'APP_SECRET': 'h5FceeDBpCvDF99FiCyMiaGRefEeZc24pNlyEYG3EAtLNMXEzk', 'ASSIGNJS': <function ASSIGNJS>, 'AppConfig': <function AppConfig>, 'Auth': <class 'gluon.tools.Auth'>, 'B': <class 'gluon.html.B'>, 'BEAUTIFY': <class 'gluon.html.BEAUTIFY'>, 'BODY': <class 'gluon.html.BODY'>, ...}, layer='/home/www-data/web2py/applications/init/controllers/dashboard.py')"
p84
sS'func'
p85
S'restricted'
p86
sa(dp87
g62
S'/home/www-data/web2py/applications/init/controllers/dashboard.py'
p88
sg64
(dp89
sg70
I16
sg71
(dp90
I5
S''
sI6
S"APP_KEY = 'N9Eu9N9iUX4MSHu8ryq8krrnH'"
p91
sI7
S"APP_SECRET = 'h5FceeDBpCvDF99FiCyMiaGRefEeZc24pNlyEYG3EAtLNMXEzk'"
p92
sI8
S''
sI9
S'def index():'
p93
sI10
S"    response.title = 'Dashboard'"
p94
sI11
S'    twitter = Twython(APP_KEY, APP_SECRET, session.USER_OAUTH_TOKEN, session.USER_OAUTH_TOKEN_SECRET)'
p95
sI12
S'    timeline = twitter.get_home_timeline()'
p96
sI13
S"    tweets = [{'screen_name':data['user']['screen_name'], 'text': data['text']} for data in timeline ]"
p97
sI14
S'    return dict(message=("Timeline for @%s" % session.SCREENNAME), timeline=tweets, screen_name=screen_name)'
p98
ssg83
S'()'
p99
sg85
S'<module>'
p100
sa(dp101
g62
S'/home/www-data/web2py/gluon/globals.py'
p102
sg64
(dp103
S'self'
p104
S'undefined'
p105
sS'f'
S'<function index>'
p106
ssg70
I412
sg71
(dp107
I416
S"        self.generic_patterns = ['*']"
p108
sI407
S"        self.flash = ''            # used by the default view layout"
p109
sI408
S'        self.meta = Storage()      # used by web2py_ajax.html'
p110
sI409
S'        self.menu = []             # used by the default view layout'
p111
sI410
S'        self.files = []            # used by web2py_ajax.html'
p112
sI411
S'        self._vars = None'
p113
sI412
S'        self._caller = lambda f: f()'
p114
sI413
S'        self._view_environment = None'
p115
sI414
S'        self._custom_commit = None'
p116
sI415
S'        self._custom_rollback = None'
p117
ssg83
S'(f=<function index>)'
p118
sg85
S'<lambda>'
p119
sa(dp120
g62
S'/home/www-data/web2py/applications/init/controllers/dashboard.py'
p121
sg64
(dp122
S'global session'
p123
S"<Storage {'USER_OAUTH_TOKEN_SECRET': u'wSZqg9lFS...d099'], '_secure': True, 'SCREENNAME': 'p3Geek'}>"
p124
sS'screen_name'
p125
g105
sS'timeline'
p126
S"[{u'contributors': None, u'coordinates': None, u'created_at': u'Tue Sep 01 03:48:41 +0000 2015', u'entities': {u'hashtags': [{u'indices': [22, 33], u'text': u'MSIgniteNZ'}], u'media': [{u'display_url': u'pic.twitter.com/op5iahmoGZ', u'expanded_url': u'http://twitter.com/sympmarc/status/638559072355225600/photo/1', u'id': 638559071659012096, u'id_str': u'638559071659012096', u'indices': [80, 102], u'media_url': u'http://pbs.twimg.com/media/CNyeF6pWsAAd_k8.jpg', u'media_url_https': u'https://pbs.twimg.com/media/CNyeF6pWsAAd_k8.jpg', u'sizes': {u'large': {...}, u'medium': {...}, u'small': {...}, u'thumb': {...}}, u'type': u'photo', u'url': u'http://t.co/op5iahmoGZ'}], u'symbols': [], u'urls': [], u'user_mentions': [{u'id': 227676003, u'id_str': u'227676003', u'indices': [64, 78], u'name': u'Chris Tomich', u'screen_name': u'christomich82'}]}, u'extended_entities': {u'media': [{u'display_url': u'pic.twitter.com/op5iahmoGZ', u'expanded_url': u'http://twitter.com/sympmarc/status/638559072355225600/photo/1', u'id': 638559071659012096, u'id_str': u'638559071659012096', u'indices': [80, 102], u'media_url': u'http://pbs.twimg.com/media/CNyeF6pWsAAd_k8.jpg', u'media_url_https': u'https://pbs.twimg.com/media/CNyeF6pWsAAd_k8.jpg', u'sizes': {u'large': {...}, u'medium': {...}, u'small': {...}, u'thumb': {...}}, u'type': u'photo', u'url': u'http://t.co/op5iahmoGZ'}]}, u'favorite_count': 0, u'favorited': False, u'geo': None, u'id': 638559072355225600, u'id_str': u'638559072355225600', ...}, {u'contributors': None, u'coordinates': None, u'created_at': u'Tue Sep 01 03:47:36 +0000 2015', u'entities': {u'hashtags': [{u'indices': [122, 130], u'text': u'lazyweb'}], u'symbols': [], u'urls': [], u'user_mentions': []}, u'favorite_count': 0, u'favorited': False, u'geo': None, u'id': 638558799662452736, u'id_str': u'638558799662452736', u'in_reply_to_screen_name': None, ...}, {u'contributors': None, u'coordinates': {u'coordinates': [-123.08888889, 49.2775], u'type': u'Point'}, u'created_at': u'Tue Sep 01 03:45:59 +0000 2015', u'entities': {u'hashtags': [{u'indices': [10, 19], u'text': u'woolworm'}, {u'indices': [67, 76], u'text': u'voolvorm'}, {u'indices': [77, 94], u'text': u'photobylaurenray'}], u'symbols': [], u'urls': [{u'display_url': u'instagram.com/p/7Esmj0R55Z/', u'expanded_url': u'https://instagram.com/p/7Esmj0R55Z/', u'indices': [96, 119], u'url': u'https://t.co/OGzFYSE8h7'}], u'user_mentions': [{u'id': 807684240, u'id_str': u'807684240', u'indices': [44, 56], u'name': u'LL cool ray', u'screen_name': u'laurenjray_'}]}, u'favorite_count': 0, u'favorited': False, u'geo': {u'coordinates': [49.2775, -123.08888889], u'type': u'Point'}, u'id': 638558394694156288, u'id_str': u'638558394694156288', u'in_reply_to_screen_name': None, ...}, {u'contributors': None, u'coordinates': None, u'created_at': u'Tue Sep 01 03:45:22 +0000 2015', u'entities': {u'hashtags': [{u'indices': [29, 38], u'text': u'word2vec'}, {u'indices': [50, 55], u'text': u'XKCD'}], u'media': [{u'display_url': u'pic.twitter.com/insS4qBnwX', u'expanded_url': u'http://twitter.com/RadimRehurek/status/638531775333949440/photo/1', u'id': 638531774276997120, u'id_str': u'638531774276997120', u'indices': [123, 144], u'media_url': u'http://pbs.twimg.com/media/CNyFQ_-UkAAnPSZ.png', u'media_url_https': u'https://pbs.twimg.com/media/CNyFQ_-UkAAnPSZ.png', u'sizes': {u'large': {...}, u'medium': {...}, u'small': {...}, u'thumb': {...}}, u'source_status_id': 638531775333949440, u'source_status_id_str': u'638531775333949440', ...}], u'symbols': [], u'urls': [{u'display_url': u'groups.google.com/forum/#!msg/ge\\u2026', u'expanded_url': u'https://groups.google.com/forum/#!msg/gensim/a8PF8CInRKk/6XWcp87WBwAJ', u'indices': [88, 111], u'url': u'https://t.co/qFIT70SOgI'}], u'user_mentions': [{u'id': 2153743237, u'id_str': u'2153743237', u'indices': [3, 16], u'name': u'Radim \\u0158eh\\u016f\\u0159ek', u'screen_name': u'RadimRehurek'}, {u'id': 2251623492, u'id_str': u'2251623492', u'indices': [112, 122], u'name': u'XKCD Comic', u'screen_name': u'xkcdComic'}]}, u'extended_entities': {u'media': [{u'display_url': u'pic.twitter.com/insS4qBnwX', u'expanded_url': u'http://twitter.com/RadimRehurek/status/638531775333949440/photo/1', u'id': 638531774276997120, u'id_str': u'638531774276997120', u'indices': [123, 144], u'media_url': u'http://pbs.twimg.com/media/CNyFQ_-UkAAnPSZ.png', u'media_url_https': u'https://pbs.twimg.com/media/CNyFQ_-UkAAnPSZ.png', u'sizes': {u'large': {...}, u'medium': {...}, u'small': {...}, u'thumb': {...}}, u'source_status_id': 638531775333949440, u'source_status_id_str': u'638531775333949440', ...}]}, u'favorite_count': 0, u'favorited': False, u'geo': None, u'id': 638558239164989441, u'id_str': u'638558239164989441', ...}, {u'contributors': None, u'coordinates': None, u'created_at': u'Tue Sep 01 03:45:02 +0000 2015', u'entities': {u'hashtags': [], u'media': [{u'display_url': u'pic.twitter.com/mEPIORYg66', u'expanded_url': u'http://twitter.com/NASAGoddard/status/638451937046851584/photo/1', u'id': 638451936312852480, u'id_str': u'638451936312852480', u'indices': [115, 137], u'media_url': u'http://pbs.twimg.com/media/CNw8p0YWgAAWTJf.jpg', u'media_url_https': u'https://pbs.twimg.com/media/CNw8p0YWgAAWTJf.jpg', u'sizes': {u'large': {...}, u'medium': {...}, u'small': {...}, u'thumb': {...}}, u'source_status_id': 638451937046851584, u'source_status_id_str': u'638451937046851584', ...}], u'symbols': [], u'urls': [{u'display_url': u'nasa.gov/scientificball\\u2026', u'expanded_url': u'http://www.nasa.gov/scientificballoons', u'indices': [92, 114], u'url': u'http://t.co/Mlhg90m2DT'}], u'user_mentions': [{u'id': 20060293, u'id_str': u'20060293', u'indices': [3, 15], u'name': u'NASA Goddard', u'screen_name': u'NASAGoddard'}]}, u'extended_entities': {u'media': [{u'display_url': u'pic.twitter.com/mEPIORYg66', u'expanded_url': u'http://twitter.com/NASAGoddard/status/638451937046851584/photo/1', u'id': 638451936312852480, u'id_str': u'638451936312852480', u'indices': [115, 137], u'media_url': u'http://pbs.twimg.com/media/CNw8p0YWgAAWTJf.jpg', u'media_url_https': u'https://pbs.twimg.com/media/CNw8p0YWgAAWTJf.jpg', u'sizes': {u'large': {...}, u'medium': {...}, u'small': {...}, u'thumb': {...}}, u'source_status_id': 638451937046851584, u'source_status_id_str': u'638451937046851584', ...}, {u'display_url': u'pic.twitter.com/mEPIORYg66', u'expanded_url': u'http://twitter.com/NASAGoddard/status/638451937046851584/photo/1', u'id': 638451930902188032, u'id_str': u'638451930902188032', u'indices': [115, 137], u'media_url': u'http://pbs.twimg.com/media/CNw8pgOWUAAyfdX.jpg', u'media_url_https': u'https://pbs.twimg.com/media/CNw8pgOWUAAyfdX.jpg', u'sizes': {u'large': {...}, u'medium': {...}, u'small': {...}, u'thumb': {...}}, u'source_status_id': 638451937046851584, u'source_status_id_str': u'638451937046851584', ...}]}, u'favorite_count': 0, u'favorited': False, u'geo': None, u'id': 638558153378959360, u'id_str': u'638558153378959360', ...}, {u'contributors': None, u'coordinates': None, u'created_at': u'Tue Sep 01 03:44:59 +0000 2015', u'entities': {u'hashtags': [], u'symbols': [], u'urls': [{u'display_url': u'wrd.cm/1UirHCF', u'expanded_url': u'http://wrd.cm/1UirHCF', u'indices': [60, 82], u'url': u'http://t.co/2JPtkmxqws'}], u'user_mentions': [{u'id': 1344951, u'id_str': u'1344951', u'indices': [3, 9], u'name': u'WIRED', u'screen_name': u'WIRED'}]}, u'favorite_count': 0, u'favorited': False, u'geo': None, u'id': 638558142805114880, u'id_str': u'638558142805114880', u'in_reply_to_screen_name': None, ...}, {u'contributors': None, u'coordinates': None, u'created_at': u'Tue Sep 01 03:44:22 +0000 2015', u'entities': {u'hashtags': [], u'media': [{u'display_url': u'pic.twitter.com/Y0T6c3F4iI', u'expanded_url': u'http://twitter.com/alex_macdonald/status/593581559325839360/photo/1', u'id': 593581558398906368, u'id_str': u'593581558398906368', u'indices': [90, 112], u'media_url': u'http://pbs.twimg.com/media/CDzTSE2W8AApVj5.jpg', u'media_url_https': u'https://pbs.twimg.com/media/CDzTSE2W8AApVj5.jpg', u'sizes': {u'large': {...}, u'medium': {...}, u'small': {...}, u'thumb': {...}}, u'source_status_id': 593581559325839360, u'source_status_id_str': u'593581559325839360', ...}], u'symbols': [], u'urls': [], u'user_mentions': [{u'id': 38715511, u'id_str': u'38715511', u'indices': [3, 18], u'name': u'Alexander MacDonald', u'screen_name': u'alex_macdonald'}]}, u'extended_entities': {u'media': [{u'display_url': u'pic.twitter.com/Y0T6c3F4iI', u'expanded_url': u'http://twitter.com/alex_macdonald/status/593581559325839360/photo/1', u'id': 593581558398906368, u'id_str': u'593581558398906368', u'indices': [90, 112], u'media_url': u'http://pbs.twimg.com/media/CDzTSE2W8AApVj5.jpg', u'media_url_https': u'https://pbs.twimg.com/media/CDzTSE2W8AApVj5.jpg', u'sizes': {u'large': {...}, u'medium': {...}, u'small': {...}, u'thumb': {...}}, u'source_status_id': 593581559325839360, u'source_status_id_str': u'593581559325839360', ...}]}, u'favorite_count': 0, u'favorited': False, u'geo': None, u'id': 638557985128628224, u'id_str': u'638557985128628224', ...}, {u'contributors': None, u'coordinates': None, u'created_at': u'Tue Sep 01 03:43:28 +0000 2015', u'entities': {u'hashtags': [], u'symbols': [], u'urls': [], u'user_mentions': [{u'id': 85348975, u'id_str': u'85348975', u'indices': [0, 10], u'name': u'Brad Urani', u'screen_name': u'bradurani'}]}, u'favorite_count': 0, u'favorited': False, u'geo': None, u'id': 638557761857560576, u'id_str': u'638557761857560576', u'in_reply_to_screen_name': u'bradurani', ...}, {u'contributors': None, u'coordinates': None, u'created_at': u'Tue Sep 01 03:43:01 +0000 2015', u'entities': {u'hashtags': [], u'symbols': [], u'urls': [], u'user_mentions': []}, u'favorite_count': 0, u'favorited': False, u'geo': None, u'id': 638557647403397120, u'id_str': u'638557647403397120', u'in_reply_to_screen_name': None, ...}, {u'contributors': None, u'coordinates': None, u'created_at': u'Tue Sep 01 03:42:41 +0000 2015', u'entities': {u'hashtags': [], u'symbols': [], u'urls': [{u'display_url': u'youtube.com/watch?v=2VHF7e\\u2026', u'expanded_url': u'https://www.youtube.com/watch?v=2VHF7esEeM4', u'indices': [84, 107], u'url': u'https://t.co/HmHWlQnpJF'}], u'user_mentions': []}, u'favorite_count': 1, u'favorited': False, u'geo': None, u'id': 638557561688563712, u'id_str': u'638557561688563712', u'in_reply_to_screen_name': None, ...}, {u'contributors': None, u'coordinates': None, u'created_at': u'Tue Sep 01 03:42:24 +0000 2015', u'entities': {u'hashtags': [], u'symbols': [], u'urls': [{u'display_url': u'twitter.com/NicoleZoopzoop\\u2026', u'expanded_url': u'https://twitter.com/NicoleZoopzoop/status/638557291843858432', u'indices': [22, 45], u'url': u'https://t.co/yAJCx8KOHw'}], u'user_mentions': []}, u'favorite_count': 0, u'favorited': False, u'geo': None, u'id': 638557491966644224, u'id_str': u'638557491966644224', u'in_reply_to_screen_name': None, ...}, {u'contributors': None, u'coordinates': None, u'created_at': u'Tue Sep 01 03:42:13 +0000 2015', u'entities': {u'hashtags': [{u'indices': [79, 86], u'text': u'wwcode'}], u'media': [{u'display_url': u'pic.twitter.com/bR1ZTokn2Z', u'expanded_url': u'http://twitter.com/alaina/status/638557402221035520/photo/1', u'id': 638557398731386881, u'id_str': u'638557398731386881', u'indices': [101, 123], u'media_url': u'http://pbs.twimg.com/media/CNyckigU8AEptCm.jpg', u'media_url_https': u'https://pbs.twimg.com/media/CNyckigU8AEptCm.jpg', u'sizes': {u'large': {...}, u'medium': {...}, u'small': {...}, u'thumb': {...}}, u'source_status_id': 638557402221035520, u'source_status_id_str': u'638557402221035520', ...}], u'symbols': [], u'urls': [], u'user_mentions': [{u'id': 16500734, u'id_str': u'16500734', u'indices': [3, 10], u'name': u'Alaina Percival', u'screen_name': u'alaina'}, {u'id': 197024659, u'id_str': u'197024659', u'indices': [33, 43], u'name': u'Joey Rosenberg', u'screen_name': u'Joeycrose'}, {u'id': 309239363, u'id_str': u'309239363', u'indices': [44, 54], u'name': u'Zassmin', u'screen_name': u'Zassmin_M'}, {u'id': 101254000, u'id_str': u'101254000', u'indices': [55, 67], u'name': u'Stephanie Shupe', u'screen_name': u'steph_shupe'}, {u'id': 345673106, u'id_str': u'345673106', u'indices': [87, 100], u'name': u'Women Who Code', u'screen_name': u'WomenWhoCode'}]}, u'extended_entities': {u'media': [{u'display_url': u'pic.twitter.com/bR1ZTokn2Z', u'expanded_url': u'http://twitter.com/alaina/status/638557402221035520/photo/1', u'id': 638557398731386881, u'id_str': u'638557398731386881', u'indices': [101, 123], u'media_url': u'http://pbs.twimg.com/media/CNyckigU8AEptCm.jpg', u'media_url_https': u'https://pbs.twimg.com/media/CNyckigU8AEptCm.jpg', u'sizes': {u'large': {...}, u'medium': {...}, u'small': {...}, u'thumb': {...}}, u'source_status_id': 638557402221035520, u'source_status_id_str': u'638557402221035520', ...}]}, u'favorite_count': 0, u'favorited': False, u'geo': None, u'id': 638557445820841984, u'id_str': u'638557445820841984', ...}, {u'contributors': None, u'coordinates': None, u'created_at': u'Tue Sep 01 03:42:07 +0000 2015', u'entities': {u'hashtags': [], u'symbols': [], u'urls': [], u'user_mentions': []}, u'favorite_count': 0, u'favorited': False, u'geo': None, u'id': 638557418939641856, u'id_str': u'638557418939641856', u'in_reply_to_screen_name': None, ...}, {u'contributors': None, u'coordinates': None, u'created_at': u'Tue Sep 01 03:39:58 +0000 2015', u'entities': {u'hashtags': [], u'media': [{u'display_url': u'pic.twitter.com/QhdozK8sVO', u'expanded_url': u'http://twitter.com/leomoon84/status/638556880646873088/photo/1', u'id': 638556880583958528, u'id_str': u'638556880583958528', u'indices': [5, 27], u'media_url': u'http://pbs.twimg.com/media/CNycGYQWoAA2KLs.jpg', u'media_url_https': u'https://pbs.twimg.com/media/CNycGYQWoAA2KLs.jpg', u'sizes': {u'large': {...}, u'medium': {...}, u'small': {...}, u'thumb': {...}}, u'type': u'photo', u'url': u'http://t.co/QhdozK8sVO'}], u'symbols': [], u'urls': [], u'user_mentions': []}, u'extended_entities': {u'media': [{u'display_url': u'pic.twitter.com/QhdozK8sVO', u'expanded_url': u'http://twitter.com/leomoon84/status/638556880646873088/photo/1', u'id': 638556880583958528, u'id_str': u'638556880583958528', u'indices': [5, 27], u'media_url': u'http://pbs.twimg.com/media/CNycGYQWoAA2KLs.jpg', u'media_url_https': u'https://pbs.twimg.com/media/CNycGYQWoAA2KLs.jpg', u'sizes': {u'large': {...}, u'medium': {...}, u'small': {...}, u'thumb': {...}}, u'type': u'photo', u'url': u'http://t.co/QhdozK8sVO'}]}, u'favorite_count': 0, u'favorited': False, u'geo': None, u'id': 638556880646873088, u'id_str': u'638556880646873088', ...}, {u'contributors': None, u'coordinates': None, u'created_at': u'Tue Sep 01 03:39:25 +0000 2015', u'entities': {u'hashtags': [{u'indices': [73, 84], u'text': u'PernixData'}, {u'indices': [100, 105], u'text': u'Todd'}, {u'indices': [106, 117], u'text': u'tallperson'}, {u'indices': [118, 126], u'text': u'VMworld'}], u'media': [{u'display_url': u'pic.twitter.com/z8O8XKS3fc', u'expanded_url': u'http://twitter.com/coolsport00/status/638556346183389184/photo/1', u'id': 638556342836334592, u'id_str': u'638556342836334592', u'indices': [127, 140], u'media_url': u'http://pbs.twimg.com/media/CNybnE_VEAAdRce.jpg', u'media_url_https': u'https://pbs.twimg.com/media/CNybnE_VEAAdRce.jpg', u'sizes': {u'large': {...}, u'medium': {...}, u'small': {...}, u'thumb': {...}}, u'source_status_id': 638556346183389184, u'source_status_id_str': u'638556346183389184', ...}], u'symbols': [], u'urls': [], u'user_mentions': [{u'id': 24762751, u'id_str': u'24762751', u'indices': [3, 15], u'name': u'Shane Williford', u'screen_name': u'coolsport00'}, {u'id': 16301927, u'id_str': u'16301927', u'indices': [17, 27], u'name': u'Todd Scalzott', u'screen_name': u'tscalzott'}, {u'id': 274709226, u'id_str': u'274709226', u'indices': [28, 41], u'name': u'Stacy Carter', u'screen_name': u'virtualstace'}, {u'id': 15806164, u'id_str': u'15806164', u'indices': [43, 52], u'name': u'Ed Grigson', u'screen_name': u'egrigson'}, {u'id': 180748219, u'id_str': u'180748219', u'indices': [54, 65], u'name': u'Adam Robinson', u'screen_name': u'omgitsadam'}]}, u'extended_entities': {u'media': [{u'display_url': u'pic.twitter.com/z8O8XKS3fc', u'expanded_url': u'http://twitter.com/coolsport00/status/638556346183389184/photo/1', u'id': 638556342836334592, u'id_str': u'638556342836334592', u'indices': [127, 140], u'media_url': u'http://pbs.twimg.com/media/CNybnE_VEAAdRce.jpg', u'media_url_https': u'https://pbs.twimg.com/media/CNybnE_VEAAdRce.jpg', u'sizes': {u'large': {...}, u'medium': {...}, u'small': {...}, u'thumb': {...}}, u'source_status_id': 638556346183389184, u'source_status_id_str': u'638556346183389184', ...}]}, u'favorite_count': 0, u'favorited': False, u'geo': None, u'id': 638556742645772288, u'id_str': u'638556742645772288', ...}, {u'contributors': None, u'coordinates': None, u'created_at': u'Tue Sep 01 03:38:16 +0000 2015', u'entities': {u'hashtags': [], u'media': [{u'display_url': u'pic.twitter.com/CVZoWXrcQB', u'expanded_url': u'http://twitter.com/stephenjenkin/status/638551131698937856/photo/1', u'id': 638551100589801472, u'id_str': u'638551100589801472', u'indices': [87, 109], u'media_url': u'http://pbs.twimg.com/media/CNyW18GXAAAXViC.jpg', u'media_url_https': u'https://pbs.twimg.com/media/CNyW18GXAAAXViC.jpg', u'sizes': {u'large': {...}, u'medium': {...}, u'small': {...}, u'thumb': {...}}, u'source_status_id': 638551131698937856, u'source_status_id_str': u'638551131698937856', ...}], u'symbols': [], u'urls': [{u'display_url': u'bbc.co.uk/news/world-mid\\u2026', u'expanded_url': u'http://www.bbc.co.uk/news/world-middle-east-34111092', u'indices': [64, 86], u'url': u'http://t.co/hqZLlP5mw1'}], u'user_mentions': [{u'id': 316686040, u'id_str': u'316686040', u'indices': [16, 30], u'name': u'The Classics Library', u'screen_name': u'stephenjenkin'}]}, u'extended_entities': {u'media': [{u'display_url': u'pic.twitter.com/CVZoWXrcQB', u'expanded_url': u'http://twitter.com/stephenjenkin/status/638551131698937856/photo/1', u'id': 638551100589801472, u'id_str': u'638551100589801472', u'indices': [87, 109], u'media_url': u'http://pbs.twimg.com/media/CNyW18GXAAAXViC.jpg', u'media_url_https': u'https://pbs.twimg.com/media/CNyW18GXAAAXViC.jpg', u'sizes': {u'large': {...}, u'medium': {...}, u'small': {...}, u'thumb': {...}}, u'source_status_id': 638551131698937856, u'source_status_id_str': u'638551131698937856', ...}]}, u'favorite_count': 1, u'favorited': False, u'geo': None, u'id': 638556451967922176, u'id_str': u'638556451967922176', ...}, {u'contributors': None, u'coordinates': None, u'created_at': u'Tue Sep 01 03:37:37 +0000 2015', u'entities': {u'hashtags': [{u'indices': [43, 51], u'text': u'CuteOff'}, {u'indices': [52, 68], u'text': u'TeamHerpetology'}, {u'indices': [86, 101], u'text': u'TeamEntomology'}], u'media': [{u'display_url': u'pic.twitter.com/FKMWJHnoFL', u'expanded_url': u'http://twitter.com/FieldEcology/status/638550340040724480/photo/1', u'id': 638550328246317056, u'id_str': u'638550328246317056', u'indices': [102, 124], u'media_url': u'http://pbs.twimg.com/media/CNyWI-5UsAA96PM.jpg', u'media_url_https': u'https://pbs.twimg.com/media/CNyWI-5UsAA96PM.jpg', u'sizes': {u'large': {...}, u'medium': {...}, u'small': {...}, u'thumb': {...}}, u'source_status_id': 638550340040724480, u'source_status_id_str': u'638550340040724480', ...}], u'symbols': [], u'urls': [], u'user_mentions': [{u'id': 1708744208, u'id_str': u'1708744208', u'indices': [3, 16], u'name': u'Christopher E. Smith', u'screen_name': u'FieldEcology'}]}, u'extended_entities': {u'media': [{u'display_url': u'pic.twitter.com/FKMWJHnoFL', u'expanded_url': u'http://twitter.com/FieldEcology/status/638550340040724480/photo/1', u'id': 638550328246317056, u'id_str': u'638550328246317056', u'indices': [102, 124], u'media_url': u'http://pbs.twimg.com/media/CNyWI-5UsAA96PM.jpg', u'media_url_https': u'https://pbs.twimg.com/media/CNyWI-5UsAA96PM.jpg', u'sizes': {u'large': {...}, u'medium': {...}, u'small': {...}, u'thumb': {...}}, u'source_status_id': 638550340040724480, u'source_status_id_str': u'638550340040724480', ...}, {u'display_url': u'pic.twitter.com/FKMWJHnoFL', u'expanded_url': u'http://twitter.com/FieldEcology/status/638550340040724480/photo/1', u'id': 638550328258924544, u'id_str': u'638550328258924544', u'indices': [102, 124], u'media_url': u'http://pbs.twimg.com/media/CNyWI-8VEAAg5jI.jpg', u'media_url_https': u'https://pbs.twimg.com/media/CNyWI-8VEAAg5jI.jpg', u'sizes': {u'large': {...}, u'medium': {...}, u'small': {...}, u'thumb': {...}}, u'source_status_id': 638550340040724480, u'source_status_id_str': u'638550340040724480', ...}, {u'display_url': u'pic.twitter.com/FKMWJHnoFL', u'expanded_url': u'http://twitter.com/FieldEcology/status/638550340040724480/photo/1', u'id': 638550328275632128, u'id_str': u'638550328275632128', u'indices': [102, 124], u'media_url': u'http://pbs.twimg.com/media/CNyWI_AUAAAFpuk.jpg', u'media_url_https': u'https://pbs.twimg.com/media/CNyWI_AUAAAFpuk.jpg', u'sizes': {u'large': {...}, u'medium': {...}, u'small': {...}, u'thumb': {...}}, u'source_status_id': 638550340040724480, u'source_status_id_str': u'638550340040724480', ...}]}, u'favorite_count': 0, u'favorited': False, u'geo': None, u'id': 638556287584702466, u'id_str': u'638556287584702466', ...}, {u'contributors': None, u'coordinates': None, u'created_at': u'Tue Sep 01 03:37:21 +0000 2015', u'entities': {u'hashtags': [], u'symbols': [], u'urls': [], u'user_mentions': []}, u'favorite_count': 0, u'favorited': False, u'geo': None, u'id': 638556219959971840, u'id_str': u'638556219959971840', u'in_reply_to_screen_name': None, ...}, {u'contributors': None, u'coordinates': None, u'created_at': u'Tue Sep 01 03:37:06 +0000 2015', u'entities': {u'hashtags': [], u'symbols': [], u'urls': [], u'user_mentions': [{u'id': 15956067, u'id_str': u'15956067', u'indices': [3, 17], u'name': u'Jose Antonio Vargas', u'screen_name': u'joseiswriting'}]}, u'favorite_count': 0, u'favorited': False, u'geo': None, u'id': 638556159146766336, u'id_str': u'638556159146766336', u'in_reply_to_screen_name': None, ...}, {u'contributors': None, u'coordinates': None, u'created_at': u'Tue Sep 01 03:35:38 +0000 2015', u'entities': {u'hashtags': [{u'indices': [83, 94], u'text': u'technology'}], u'symbols': [], u'urls': [{u'display_url': u'bit.ly/1N67mMW', u'expanded_url': u'http://bit.ly/1N67mMW', u'indices': [60, 82], u'url': u'http://t.co/IhLlpoF0k7'}], u'user_mentions': []}, u'favorite_count': 0, u'favorited': False, u'geo': None, u'id': 638555788424937473, u'id_str': u'638555788424937473', u'in_reply_to_screen_name': None, ...}]"
p127
sS'tweets'
p128
S'[{\'screen_name\': u\'sympmarc\', \'text\': u\'Getting ready for the #MSIgniteNZ keynote. Fro...eats with @christomich82. http://t.co/op5iahmoGZ\'}, {\'screen_name\': u\'vmbrasseur\', \'text\': u\'Final Fantasy VII requires iOS8. I have an iPa...ares actually run on OK on my old iPad? #lazyweb\'}, {\'screen_name\': u\'eubenesa\', \'text\': u\'new room, #woolworm vibes. \\U0001f4f7 in da fr... #photobylaurenray\\u2026 https://t.co/OGzFYSE8h7\'}, {\'screen_name\': u\'plusepsilon\', \'text\': u\'RT @RadimRehurek: Hilarious: #word2vec replica...qFIT70SOgI @xkcdComic http://t.co/insS4qBn\\u2026\'}, {\'screen_name\': u\'mikestrattonNET\', \'text\': u"RT @NASAGoddard: Check out NASA\'s ballooning p...:\\nhttp://t.co/Mlhg90m2DT http://t.co/mEPIORYg66"}, {\'screen_name\': u\'mihirchronicles\', \'text\': u\'RT @WIRED: I used physics to calculate how much Yoda weighs http://t.co/2JPtkmxqws\'}, {\'screen_name\': u\'vlucas\', \'text\': u\'RT @alex_macdonald: I will fight to support th...il I draw my last breath. http://t.co/Y0T6c3F4iI\'}, {\'screen_name\': u\'bradurani\', \'text\': u"@bradurani Don\'t they know about the Internet of Things? It was about to finally be useful!"}, {\'screen_name\': u\'bradurani\', \'text\': u"WTF?!?! The IETF is killing status code 418 I\'...nny inside joke for 17 years. WHY SO SERIOUS?!?!"}, {\'screen_name\': u\'rickasaurus\', \'text\': u\'Currently Watching: William Oliver, "Quantum E... Superconducting Qubits" https://t.co/HmHWlQnpJF\'}, {\'screen_name\': u\'LilyLemmer\', \'text\': u\'SO SPACE WOW u follow https://t.co/yAJCx8KOHw\'}, {\'screen_name\': u\'romyilano\', \'text\': u\'RT @alaina: Hanging tonight with @Joeycrose @Z...cha #wwcode @WomenWhoCode http://t.co/bR1ZTokn2Z\'}, {\'screen_name\': u\'adampatterson\', \'text\': u\'Old Man Luedecke + Code + Woodford Reserve = Good times\'}, {\'screen_name\': u\'leomoon84\', \'text\': u\'YEA! http://t.co/QhdozK8sVO\'}, {\'screen_name\': u\'omgitsadam\', \'text\': u\'RT @coolsport00: @tscalzott @virtualstace  @eg...ha #Todd #tallperson #VMworld http://t.co/\\u2026\'}, {\'screen_name\': u\'vmbrasseur\', \'text\': u\'Goddammit. \\n\\nRT @stephenjenkin: Gone.\\n\\nTem...n\\nhttp://t.co/hqZLlP5mw1 http://t.co/CVZoWXrcQB\'}, {\'screen_name\': u\'neuromusic\', \'text\': u\'RT @FieldEcology: Hognoses are cute noses! #Cu... win with #TeamEntomology http://t.co/FKMWJHnoFL\'}, {\'screen_name\': u\'BerkeleyTrue\', \'text\': u\'Daewoo, Bouuuunce!\'}, {\'screen_name\': u\'neuromusic\', \'text\': u"RT @joseiswriting: So...Miley Cyrus showing he... malfunction at Superbowl? National crisis. Why?"}, {\'screen_name\': u\'AndreiOprisan\', \'text\': u"Google\'s custom self-driving car comes to Austin - Engadget http://t.co/IhLlpoF0k7 #technology"}]'
p129
sS'session.SCREENNAME'
p130
S"'p3Geek'"
p131
sS'message'
p132
g105
sS'builtindict'
p133
S"<type 'dict'>"
p134
ssg70
I14
sg71
(dp135
I5
S''
sI6
S"APP_KEY = 'N9Eu9N9iUX4MSHu8ryq8krrnH'"
p136
sI7
S"APP_SECRET = 'h5FceeDBpCvDF99FiCyMiaGRefEeZc24pNlyEYG3EAtLNMXEzk'"
p137
sI8
S''
sI9
S'def index():'
p138
sI10
S"    response.title = 'Dashboard'"
p139
sI11
S'    twitter = Twython(APP_KEY, APP_SECRET, session.USER_OAUTH_TOKEN, session.USER_OAUTH_TOKEN_SECRET)'
p140
sI12
S'    timeline = twitter.get_home_timeline()'
p141
sI13
S"    tweets = [{'screen_name':data['user']['screen_name'], 'text': data['text']} for data in timeline ]"
p142
sI14
S'    return dict(message=("Timeline for @%s" % session.SCREENNAME), timeline=tweets, screen_name=screen_name)'
p143
ssg83
S'()'
p144
sg85
S'index'
p145
sasS'pyver'
p146
S'Python 2.7.6: /usr/bin/python (prefix: /usr)'
p147
sS'session'
p148
g57
(S'se\x03\x00\x00<div><table><tr><td style="font-weight:bold;vertical-align:top;">OAUTH_TOKEN</td><td style="vertical-align:top;">:</td><td><div>ARyLZwAAAAAAhUchAAABT4b5O7w</div></td></tr><tr><td style="font-weight:bold;vertical-align:top;">OAUTH_TOKEN_SECRET</td><td style="vertical-align:top;">:</td><td><div>m9vOR18ttcLYCDFWUpONd1JXnLa0zPSn</div></td></tr><tr><td style="font-weight:bold;vertical-align:top;">SCREENNAME</td><td style="vertical-align:top;">:</td><td><div>p3Geek</div></td></tr><tr><td style="font-weight:bold;vertical-align:top;">USER_OAUTH_TOKEN</td><td style="vertical-align:top;">:</td><td><div>2927712042-kpRDLAz0BEGt9tM6aRZqxdJW5REc1ufLbMTf5Yp</div></td></tr><tr><td style="font-weight:bold;vertical-align:top;">USER_OAUTH_TOKEN_SECRET</td><td style="vertical-align:top;">:</td><td><div>wSZqg9lFSadjfMg6tvCbFD25F9HtqGqf8NpL9RfIuDALf</div></td></tr></table></div>'
tRp149
sS'etype'
p150
S"<type 'exceptions.NameError'>"
p151
sS'date'
p152
S'Mon Aug 31 20:49:12 2015'
p153
sS'response'
p154
g57
(S's\x04\x1f\x00\x00<div><table><tr><td style="font-weight:bold;vertical-align:top;">body</td><td style="vertical-align:top;">:</td><td><div>&lt;cStringIO.StringO object at 0x7f046baf6030&gt;</div></td></tr><tr><td style="font-weight:bold;vertical-align:top;">cookies</td><td style="vertical-align:top;">:</td><td><div><table><tr><td style="font-weight:bold;vertical-align:top;">session_id_init</td><td style="vertical-align:top;">:</td><td><div>192.168.56.1-e46fd0c0-84e7-47a1-87c7-eed5f32c68fe<table><tr><td style="font-weight:bold;vertical-align:top;">comment</td><td style="vertical-align:top;">:</td><td><div></div></td></tr><tr><td style="font-weight:bold;vertical-align:top;">domain</td><td style="vertical-align:top;">:</td><td><div></div></td></tr><tr><td style="font-weight:bold;vertical-align:top;">expires</td><td style="vertical-align:top;">:</td><td><div></div></td></tr><tr><td style="font-weight:bold;vertical-align:top;">httponly</td><td style="vertical-align:top;">:</td><td><div></div></td></tr><tr><td style="font-weight:bold;vertical-align:top;">max-age</td><td style="vertical-align:top;">:</td><td><div></div></td></tr><tr><td style="font-weight:bold;vertical-align:top;">path</td><td style="vertical-align:top;">:</td><td><div>/</div></td></tr><tr><td style="font-weight:bold;vertical-align:top;">secure</td><td style="vertical-align:top;">:</td><td><div></div></td></tr><tr><td style="font-weight:bold;vertical-align:top;">version</td><td style="vertical-align:top;">:</td><td><div></div></td></tr></table></div></td></tr></table></div></td></tr><tr><td style="font-weight:bold;vertical-align:top;">delimiters</td><td style="vertical-align:top;">:</td><td><div><table><tr><td><div>{{</div></td></tr><tr><td><div>}}</div></td></tr></table></div></td></tr><tr><td style="font-weight:bold;vertical-align:top;">files</td><td style="vertical-align:top;">:</td><td><div><table></table></div></td></tr><tr><td style="font-weight:bold;vertical-align:top;">flash</td><td style="vertical-align:top;">:</td><td><div></div></td></tr><tr><td style="font-weight:bold;vertical-align:top;">form_label_separator</td><td style="vertical-align:top;">:</td><td><div></div></td></tr><tr><td style="font-weight:bold;vertical-align:top;">formstyle</td><td style="vertical-align:top;">:</td><td><div>bootstrap3_inline</div></td></tr><tr><td style="font-weight:bold;vertical-align:top;">generic_patterns</td><td style="vertical-align:top;">:</td><td><div><table></table></div></td></tr><tr><td style="font-weight:bold;vertical-align:top;">google_analytics_id</td><td style="vertical-align:top;">:</td><td><div>None</div></td></tr><tr><td style="font-weight:bold;vertical-align:top;">headers</td><td style="vertical-align:top;">:</td><td><div><table><tr><td style="font-weight:bold;vertical-align:top;">X-Powered-By</td><td style="vertical-align:top;">:</td><td><div>web2py</div></td></tr></table></div></td></tr><tr><td style="font-weight:bold;vertical-align:top;">logo</td><td style="vertical-align:top;">:</td><td><div><a class="navbar-brand" href="/" id="web2py-logo"><b>myDash</b></a></div></td></tr><tr><td style="font-weight:bold;vertical-align:top;">menu</td><td style="vertical-align:top;">:</td><td><div><table><tr><td><div><table><tr><td><div>Home</div></td></tr><tr><td><div>False</div></td></tr><tr><td><div>/init/default/index</div></td></tr><tr><td><div><table></table></div></td></tr></table></div></td></tr><tr><td><div><table><tr><td><div>Trends</div></td></tr><tr><td><div>False</div></td></tr><tr><td><div>/init/default/index</div></td></tr><tr><td><div><table></table></div></td></tr></table></div></td></tr><tr><td><div><table><tr><td><div>Recommendations</div></td></tr><tr><td><div>False</div></td></tr><tr><td><div>/init/default/index</div></td></tr><tr><td><div><table></table></div></td></tr></table></div></td></tr></table></div></td></tr><tr><td style="font-weight:bold;vertical-align:top;">meta</td><td style="vertical-align:top;">:</td><td><div><table><tr><td style="font-weight:bold;vertical-align:top;">author</td><td style="vertical-align:top;">:</td><td><div>Your Name &lt;you@example.com&gt;</div></td></tr><tr><td style="font-weight:bold;vertical-align:top;">description</td><td style="vertical-align:top;">:</td><td><div>a cool new app</div></td></tr><tr><td style="font-weight:bold;vertical-align:top;">generator</td><td style="vertical-align:top;">:</td><td><div>Web2py Web Framework</div></td></tr><tr><td style="font-weight:bold;vertical-align:top;">keywords</td><td style="vertical-align:top;">:</td><td><div>web2py, python, framework</div></td></tr></table></div></td></tr><tr><td style="font-weight:bold;vertical-align:top;">models_to_run</td><td style="vertical-align:top;">:</td><td><div><table><tr><td><div>^\\w+\\.py$</div></td></tr><tr><td><div>^dashboard/\\w+\\.py$</div></td></tr><tr><td><div>^dashboard/index/\\w+\\.py$</div></td></tr></table></div></td></tr><tr><td style="font-weight:bold;vertical-align:top;">postprocessing</td><td style="vertical-align:top;">:</td><td><div><table></table></div></td></tr><tr><td style="font-weight:bold;vertical-align:top;">session_client</td><td style="vertical-align:top;">:</td><td><div>192.168.56.1</div></td></tr><tr><td style="font-weight:bold;vertical-align:top;">session_cookie_compression_level</td><td style="vertical-align:top;">:</td><td><div>None</div></td></tr><tr><td style="font-weight:bold;vertical-align:top;">session_cookie_expires</td><td style="vertical-align:top;">:</td><td><div>None</div></td></tr><tr><td style="font-weight:bold;vertical-align:top;">session_cookie_key</td><td style="vertical-align:top;">:</td><td><div>None</div></td></tr><tr><td style="font-weight:bold;vertical-align:top;">session_data_name</td><td style="vertical-align:top;">:</td><td><div>session_data_init</div></td></tr><tr><td style="font-weight:bold;vertical-align:top;">session_file</td><td style="vertical-align:top;">:</td><td><div>&lt;open file &#x27;/home/www-data/web2py/applications/init/sessions/037/058/192.168.56.1-e46fd0c0-84e7-47a1-87c7-eed5f32c68fe&#x27;, mode &#x27;rb+&#x27; at 0x7f0480a91780&gt;</div></td></tr><tr><td style="font-weight:bold;vertical-align:top;">session_filename</td><td style="vertical-align:top;">:</td><td><div>/home/www-data/web2py/applications/init/sessions/192.168.56.1-e46fd0c0-84e7-47a1-87c7-eed5f32c68fe</div></td></tr><tr><td style="font-weight:bold;vertical-align:top;">session_hash</td><td style="vertical-align:top;">:</td><td><div>a111b6c7591ee27d2928c6e828da35a0</div></td></tr><tr><td style="font-weight:bold;vertical-align:top;">session_id</td><td style="vertical-align:top;">:</td><td><div>192.168.56.1-e46fd0c0-84e7-47a1-87c7-eed5f32c68fe</div></td></tr><tr><td style="font-weight:bold;vertical-align:top;">session_id_name</td><td style="vertical-align:top;">:</td><td><div>session_id_init</div></td></tr><tr><td style="font-weight:bold;vertical-align:top;">session_locked</td><td style="vertical-align:top;">:</td><td><div>True</div></td></tr><tr><td style="font-weight:bold;vertical-align:top;">session_masterapp</td><td style="vertical-align:top;">:</td><td><div>init</div></td></tr><tr><td style="font-weight:bold;vertical-align:top;">session_new</td><td style="vertical-align:top;">:</td><td><div>False</div></td></tr><tr><td style="font-weight:bold;vertical-align:top;">session_storage_type</td><td style="vertical-align:top;">:</td><td><div>file</div></td></tr><tr><td style="font-weight:bold;vertical-align:top;">status</td><td style="vertical-align:top;">:</td><td><div>200</div></td></tr><tr><td style="font-weight:bold;vertical-align:top;">subtitle</td><td style="vertical-align:top;">:</td><td><div></div></td></tr><tr><td style="font-weight:bold;vertical-align:top;">title</td><td style="vertical-align:top;">:</td><td><div>Dashboard</div></td></tr><tr><td style="font-weight:bold;vertical-align:top;">view</td><td style="vertical-align:top;">:</td><td><div>dashboard/index.html</div></td></tr></table></div>'
tRp155
sS'locals'
p156
(dp157
S'tweets'
p158
S'[{\'screen_name\': u\'sympmarc\', \'text\': u\'Getting ready for the #MSIgniteNZ keynote. Fro...eats with @christomich82. http://t.co/op5iahmoGZ\'}, {\'screen_name\': u\'vmbrasseur\', \'text\': u\'Final Fantasy VII requires iOS8. I have an iPa...ares actually run on OK on my old iPad? #lazyweb\'}, {\'screen_name\': u\'eubenesa\', \'text\': u\'new room, #woolworm vibes. \\U0001f4f7 in da fr... #photobylaurenray\\u2026 https://t.co/OGzFYSE8h7\'}, {\'screen_name\': u\'plusepsilon\', \'text\': u\'RT @RadimRehurek: Hilarious: #word2vec replica...qFIT70SOgI @xkcdComic http://t.co/insS4qBn\\u2026\'}, {\'screen_name\': u\'mikestrattonNET\', \'text\': u"RT @NASAGoddard: Check out NASA\'s ballooning p...:\\nhttp://t.co/Mlhg90m2DT http://t.co/mEPIORYg66"}, {\'screen_name\': u\'mihirchronicles\', \'text\': u\'RT @WIRED: I used physics to calculate how much Yoda weighs http://t.co/2JPtkmxqws\'}, {\'screen_name\': u\'vlucas\', \'text\': u\'RT @alex_macdonald: I will fight to support th...il I draw my last breath. http://t.co/Y0T6c3F4iI\'}, {\'screen_name\': u\'bradurani\', \'text\': u"@bradurani Don\'t they know about the Internet of Things? It was about to finally be useful!"}, {\'screen_name\': u\'bradurani\', \'text\': u"WTF?!?! The IETF is killing status code 418 I\'...nny inside joke for 17 years. WHY SO SERIOUS?!?!"}, {\'screen_name\': u\'rickasaurus\', \'text\': u\'Currently Watching: William Oliver, "Quantum E... Superconducting Qubits" https://t.co/HmHWlQnpJF\'}, {\'screen_name\': u\'LilyLemmer\', \'text\': u\'SO SPACE WOW u follow https://t.co/yAJCx8KOHw\'}, {\'screen_name\': u\'romyilano\', \'text\': u\'RT @alaina: Hanging tonight with @Joeycrose @Z...cha #wwcode @WomenWhoCode http://t.co/bR1ZTokn2Z\'}, {\'screen_name\': u\'adampatterson\', \'text\': u\'Old Man Luedecke + Code + Woodford Reserve = Good times\'}, {\'screen_name\': u\'leomoon84\', \'text\': u\'YEA! http://t.co/QhdozK8sVO\'}, {\'screen_name\': u\'omgitsadam\', \'text\': u\'RT @coolsport00: @tscalzott @virtualstace  @eg...ha #Todd #tallperson #VMworld http://t.co/\\u2026\'}, {\'screen_name\': u\'vmbrasseur\', \'text\': u\'Goddammit. \\n\\nRT @stephenjenkin: Gone.\\n\\nTem...n\\nhttp://t.co/hqZLlP5mw1 http://t.co/CVZoWXrcQB\'}, {\'screen_name\': u\'neuromusic\', \'text\': u\'RT @FieldEcology: Hognoses are cute noses! #Cu... win with #TeamEntomology http://t.co/FKMWJHnoFL\'}, {\'screen_name\': u\'BerkeleyTrue\', \'text\': u\'Daewoo, Bouuuunce!\'}, {\'screen_name\': u\'neuromusic\', \'text\': u"RT @joseiswriting: So...Miley Cyrus showing he... malfunction at Superbowl? National crisis. Why?"}, {\'screen_name\': u\'AndreiOprisan\', \'text\': u"Google\'s custom self-driving car comes to Austin - Engadget http://t.co/IhLlpoF0k7 #technology"}]'
p159
sS'timeline'
p160
S"[{u'contributors': None, u'coordinates': None, u'created_at': u'Tue Sep 01 03:48:41 +0000 2015', u'entities': {u'hashtags': [{u'indices': [22, 33], u'text': u'MSIgniteNZ'}], u'media': [{u'display_url': u'pic.twitter.com/op5iahmoGZ', u'expanded_url': u'http://twitter.com/sympmarc/status/638559072355225600/photo/1', u'id': 638559071659012096, u'id_str': u'638559071659012096', u'indices': [80, 102], u'media_url': u'http://pbs.twimg.com/media/CNyeF6pWsAAd_k8.jpg', u'media_url_https': u'https://pbs.twimg.com/media/CNyeF6pWsAAd_k8.jpg', u'sizes': {u'large': {...}, u'medium': {...}, u'small': {...}, u'thumb': {...}}, u'type': u'photo', u'url': u'http://t.co/op5iahmoGZ'}], u'symbols': [], u'urls': [], u'user_mentions': [{u'id': 227676003, u'id_str': u'227676003', u'indices': [64, 78], u'name': u'Chris Tomich', u'screen_name': u'christomich82'}]}, u'extended_entities': {u'media': [{u'display_url': u'pic.twitter.com/op5iahmoGZ', u'expanded_url': u'http://twitter.com/sympmarc/status/638559072355225600/photo/1', u'id': 638559071659012096, u'id_str': u'638559071659012096', u'indices': [80, 102], u'media_url': u'http://pbs.twimg.com/media/CNyeF6pWsAAd_k8.jpg', u'media_url_https': u'https://pbs.twimg.com/media/CNyeF6pWsAAd_k8.jpg', u'sizes': {u'large': {...}, u'medium': {...}, u'small': {...}, u'thumb': {...}}, u'type': u'photo', u'url': u'http://t.co/op5iahmoGZ'}]}, u'favorite_count': 0, u'favorited': False, u'geo': None, u'id': 638559072355225600, u'id_str': u'638559072355225600', ...}, {u'contributors': None, u'coordinates': None, u'created_at': u'Tue Sep 01 03:47:36 +0000 2015', u'entities': {u'hashtags': [{u'indices': [122, 130], u'text': u'lazyweb'}], u'symbols': [], u'urls': [], u'user_mentions': []}, u'favorite_count': 0, u'favorited': False, u'geo': None, u'id': 638558799662452736, u'id_str': u'638558799662452736', u'in_reply_to_screen_name': None, ...}, {u'contributors': None, u'coordinates': {u'coordinates': [-123.08888889, 49.2775], u'type': u'Point'}, u'created_at': u'Tue Sep 01 03:45:59 +0000 2015', u'entities': {u'hashtags': [{u'indices': [10, 19], u'text': u'woolworm'}, {u'indices': [67, 76], u'text': u'voolvorm'}, {u'indices': [77, 94], u'text': u'photobylaurenray'}], u'symbols': [], u'urls': [{u'display_url': u'instagram.com/p/7Esmj0R55Z/', u'expanded_url': u'https://instagram.com/p/7Esmj0R55Z/', u'indices': [96, 119], u'url': u'https://t.co/OGzFYSE8h7'}], u'user_mentions': [{u'id': 807684240, u'id_str': u'807684240', u'indices': [44, 56], u'name': u'LL cool ray', u'screen_name': u'laurenjray_'}]}, u'favorite_count': 0, u'favorited': False, u'geo': {u'coordinates': [49.2775, -123.08888889], u'type': u'Point'}, u'id': 638558394694156288, u'id_str': u'638558394694156288', u'in_reply_to_screen_name': None, ...}, {u'contributors': None, u'coordinates': None, u'created_at': u'Tue Sep 01 03:45:22 +0000 2015', u'entities': {u'hashtags': [{u'indices': [29, 38], u'text': u'word2vec'}, {u'indices': [50, 55], u'text': u'XKCD'}], u'media': [{u'display_url': u'pic.twitter.com/insS4qBnwX', u'expanded_url': u'http://twitter.com/RadimRehurek/status/638531775333949440/photo/1', u'id': 638531774276997120, u'id_str': u'638531774276997120', u'indices': [123, 144], u'media_url': u'http://pbs.twimg.com/media/CNyFQ_-UkAAnPSZ.png', u'media_url_https': u'https://pbs.twimg.com/media/CNyFQ_-UkAAnPSZ.png', u'sizes': {u'large': {...}, u'medium': {...}, u'small': {...}, u'thumb': {...}}, u'source_status_id': 638531775333949440, u'source_status_id_str': u'638531775333949440', ...}], u'symbols': [], u'urls': [{u'display_url': u'groups.google.com/forum/#!msg/ge\\u2026', u'expanded_url': u'https://groups.google.com/forum/#!msg/gensim/a8PF8CInRKk/6XWcp87WBwAJ', u'indices': [88, 111], u'url': u'https://t.co/qFIT70SOgI'}], u'user_mentions': [{u'id': 2153743237, u'id_str': u'2153743237', u'indices': [3, 16], u'name': u'Radim \\u0158eh\\u016f\\u0159ek', u'screen_name': u'RadimRehurek'}, {u'id': 2251623492, u'id_str': u'2251623492', u'indices': [112, 122], u'name': u'XKCD Comic', u'screen_name': u'xkcdComic'}]}, u'extended_entities': {u'media': [{u'display_url': u'pic.twitter.com/insS4qBnwX', u'expanded_url': u'http://twitter.com/RadimRehurek/status/638531775333949440/photo/1', u'id': 638531774276997120, u'id_str': u'638531774276997120', u'indices': [123, 144], u'media_url': u'http://pbs.twimg.com/media/CNyFQ_-UkAAnPSZ.png', u'media_url_https': u'https://pbs.twimg.com/media/CNyFQ_-UkAAnPSZ.png', u'sizes': {u'large': {...}, u'medium': {...}, u'small': {...}, u'thumb': {...}}, u'source_status_id': 638531775333949440, u'source_status_id_str': u'638531775333949440', ...}]}, u'favorite_count': 0, u'favorited': False, u'geo': None, u'id': 638558239164989441, u'id_str': u'638558239164989441', ...}, {u'contributors': None, u'coordinates': None, u'created_at': u'Tue Sep 01 03:45:02 +0000 2015', u'entities': {u'hashtags': [], u'media': [{u'display_url': u'pic.twitter.com/mEPIORYg66', u'expanded_url': u'http://twitter.com/NASAGoddard/status/638451937046851584/photo/1', u'id': 638451936312852480, u'id_str': u'638451936312852480', u'indices': [115, 137], u'media_url': u'http://pbs.twimg.com/media/CNw8p0YWgAAWTJf.jpg', u'media_url_https': u'https://pbs.twimg.com/media/CNw8p0YWgAAWTJf.jpg', u'sizes': {u'large': {...}, u'medium': {...}, u'small': {...}, u'thumb': {...}}, u'source_status_id': 638451937046851584, u'source_status_id_str': u'638451937046851584', ...}], u'symbols': [], u'urls': [{u'display_url': u'nasa.gov/scientificball\\u2026', u'expanded_url': u'http://www.nasa.gov/scientificballoons', u'indices': [92, 114], u'url': u'http://t.co/Mlhg90m2DT'}], u'user_mentions': [{u'id': 20060293, u'id_str': u'20060293', u'indices': [3, 15], u'name': u'NASA Goddard', u'screen_name': u'NASAGoddard'}]}, u'extended_entities': {u'media': [{u'display_url': u'pic.twitter.com/mEPIORYg66', u'expanded_url': u'http://twitter.com/NASAGoddard/status/638451937046851584/photo/1', u'id': 638451936312852480, u'id_str': u'638451936312852480', u'indices': [115, 137], u'media_url': u'http://pbs.twimg.com/media/CNw8p0YWgAAWTJf.jpg', u'media_url_https': u'https://pbs.twimg.com/media/CNw8p0YWgAAWTJf.jpg', u'sizes': {u'large': {...}, u'medium': {...}, u'small': {...}, u'thumb': {...}}, u'source_status_id': 638451937046851584, u'source_status_id_str': u'638451937046851584', ...}, {u'display_url': u'pic.twitter.com/mEPIORYg66', u'expanded_url': u'http://twitter.com/NASAGoddard/status/638451937046851584/photo/1', u'id': 638451930902188032, u'id_str': u'638451930902188032', u'indices': [115, 137], u'media_url': u'http://pbs.twimg.com/media/CNw8pgOWUAAyfdX.jpg', u'media_url_https': u'https://pbs.twimg.com/media/CNw8pgOWUAAyfdX.jpg', u'sizes': {u'large': {...}, u'medium': {...}, u'small': {...}, u'thumb': {...}}, u'source_status_id': 638451937046851584, u'source_status_id_str': u'638451937046851584', ...}]}, u'favorite_count': 0, u'favorited': False, u'geo': None, u'id': 638558153378959360, u'id_str': u'638558153378959360', ...}, {u'contributors': None, u'coordinates': None, u'created_at': u'Tue Sep 01 03:44:59 +0000 2015', u'entities': {u'hashtags': [], u'symbols': [], u'urls': [{u'display_url': u'wrd.cm/1UirHCF', u'expanded_url': u'http://wrd.cm/1UirHCF', u'indices': [60, 82], u'url': u'http://t.co/2JPtkmxqws'}], u'user_mentions': [{u'id': 1344951, u'id_str': u'1344951', u'indices': [3, 9], u'name': u'WIRED', u'screen_name': u'WIRED'}]}, u'favorite_count': 0, u'favorited': False, u'geo': None, u'id': 638558142805114880, u'id_str': u'638558142805114880', u'in_reply_to_screen_name': None, ...}, {u'contributors': None, u'coordinates': None, u'created_at': u'Tue Sep 01 03:44:22 +0000 2015', u'entities': {u'hashtags': [], u'media': [{u'display_url': u'pic.twitter.com/Y0T6c3F4iI', u'expanded_url': u'http://twitter.com/alex_macdonald/status/593581559325839360/photo/1', u'id': 593581558398906368, u'id_str': u'593581558398906368', u'indices': [90, 112], u'media_url': u'http://pbs.twimg.com/media/CDzTSE2W8AApVj5.jpg', u'media_url_https': u'https://pbs.twimg.com/media/CDzTSE2W8AApVj5.jpg', u'sizes': {u'large': {...}, u'medium': {...}, u'small': {...}, u'thumb': {...}}, u'source_status_id': 593581559325839360, u'source_status_id_str': u'593581559325839360', ...}], u'symbols': [], u'urls': [], u'user_mentions': [{u'id': 38715511, u'id_str': u'38715511', u'indices': [3, 18], u'name': u'Alexander MacDonald', u'screen_name': u'alex_macdonald'}]}, u'extended_entities': {u'media': [{u'display_url': u'pic.twitter.com/Y0T6c3F4iI', u'expanded_url': u'http://twitter.com/alex_macdonald/status/593581559325839360/photo/1', u'id': 593581558398906368, u'id_str': u'593581558398906368', u'indices': [90, 112], u'media_url': u'http://pbs.twimg.com/media/CDzTSE2W8AApVj5.jpg', u'media_url_https': u'https://pbs.twimg.com/media/CDzTSE2W8AApVj5.jpg', u'sizes': {u'large': {...}, u'medium': {...}, u'small': {...}, u'thumb': {...}}, u'source_status_id': 593581559325839360, u'source_status_id_str': u'593581559325839360', ...}]}, u'favorite_count': 0, u'favorited': False, u'geo': None, u'id': 638557985128628224, u'id_str': u'638557985128628224', ...}, {u'contributors': None, u'coordinates': None, u'created_at': u'Tue Sep 01 03:43:28 +0000 2015', u'entities': {u'hashtags': [], u'symbols': [], u'urls': [], u'user_mentions': [{u'id': 85348975, u'id_str': u'85348975', u'indices': [0, 10], u'name': u'Brad Urani', u'screen_name': u'bradurani'}]}, u'favorite_count': 0, u'favorited': False, u'geo': None, u'id': 638557761857560576, u'id_str': u'638557761857560576', u'in_reply_to_screen_name': u'bradurani', ...}, {u'contributors': None, u'coordinates': None, u'created_at': u'Tue Sep 01 03:43:01 +0000 2015', u'entities': {u'hashtags': [], u'symbols': [], u'urls': [], u'user_mentions': []}, u'favorite_count': 0, u'favorited': False, u'geo': None, u'id': 638557647403397120, u'id_str': u'638557647403397120', u'in_reply_to_screen_name': None, ...}, {u'contributors': None, u'coordinates': None, u'created_at': u'Tue Sep 01 03:42:41 +0000 2015', u'entities': {u'hashtags': [], u'symbols': [], u'urls': [{u'display_url': u'youtube.com/watch?v=2VHF7e\\u2026', u'expanded_url': u'https://www.youtube.com/watch?v=2VHF7esEeM4', u'indices': [84, 107], u'url': u'https://t.co/HmHWlQnpJF'}], u'user_mentions': []}, u'favorite_count': 1, u'favorited': False, u'geo': None, u'id': 638557561688563712, u'id_str': u'638557561688563712', u'in_reply_to_screen_name': None, ...}, {u'contributors': None, u'coordinates': None, u'created_at': u'Tue Sep 01 03:42:24 +0000 2015', u'entities': {u'hashtags': [], u'symbols': [], u'urls': [{u'display_url': u'twitter.com/NicoleZoopzoop\\u2026', u'expanded_url': u'https://twitter.com/NicoleZoopzoop/status/638557291843858432', u'indices': [22, 45], u'url': u'https://t.co/yAJCx8KOHw'}], u'user_mentions': []}, u'favorite_count': 0, u'favorited': False, u'geo': None, u'id': 638557491966644224, u'id_str': u'638557491966644224', u'in_reply_to_screen_name': None, ...}, {u'contributors': None, u'coordinates': None, u'created_at': u'Tue Sep 01 03:42:13 +0000 2015', u'entities': {u'hashtags': [{u'indices': [79, 86], u'text': u'wwcode'}], u'media': [{u'display_url': u'pic.twitter.com/bR1ZTokn2Z', u'expanded_url': u'http://twitter.com/alaina/status/638557402221035520/photo/1', u'id': 638557398731386881, u'id_str': u'638557398731386881', u'indices': [101, 123], u'media_url': u'http://pbs.twimg.com/media/CNyckigU8AEptCm.jpg', u'media_url_https': u'https://pbs.twimg.com/media/CNyckigU8AEptCm.jpg', u'sizes': {u'large': {...}, u'medium': {...}, u'small': {...}, u'thumb': {...}}, u'source_status_id': 638557402221035520, u'source_status_id_str': u'638557402221035520', ...}], u'symbols': [], u'urls': [], u'user_mentions': [{u'id': 16500734, u'id_str': u'16500734', u'indices': [3, 10], u'name': u'Alaina Percival', u'screen_name': u'alaina'}, {u'id': 197024659, u'id_str': u'197024659', u'indices': [33, 43], u'name': u'Joey Rosenberg', u'screen_name': u'Joeycrose'}, {u'id': 309239363, u'id_str': u'309239363', u'indices': [44, 54], u'name': u'Zassmin', u'screen_name': u'Zassmin_M'}, {u'id': 101254000, u'id_str': u'101254000', u'indices': [55, 67], u'name': u'Stephanie Shupe', u'screen_name': u'steph_shupe'}, {u'id': 345673106, u'id_str': u'345673106', u'indices': [87, 100], u'name': u'Women Who Code', u'screen_name': u'WomenWhoCode'}]}, u'extended_entities': {u'media': [{u'display_url': u'pic.twitter.com/bR1ZTokn2Z', u'expanded_url': u'http://twitter.com/alaina/status/638557402221035520/photo/1', u'id': 638557398731386881, u'id_str': u'638557398731386881', u'indices': [101, 123], u'media_url': u'http://pbs.twimg.com/media/CNyckigU8AEptCm.jpg', u'media_url_https': u'https://pbs.twimg.com/media/CNyckigU8AEptCm.jpg', u'sizes': {u'large': {...}, u'medium': {...}, u'small': {...}, u'thumb': {...}}, u'source_status_id': 638557402221035520, u'source_status_id_str': u'638557402221035520', ...}]}, u'favorite_count': 0, u'favorited': False, u'geo': None, u'id': 638557445820841984, u'id_str': u'638557445820841984', ...}, {u'contributors': None, u'coordinates': None, u'created_at': u'Tue Sep 01 03:42:07 +0000 2015', u'entities': {u'hashtags': [], u'symbols': [], u'urls': [], u'user_mentions': []}, u'favorite_count': 0, u'favorited': False, u'geo': None, u'id': 638557418939641856, u'id_str': u'638557418939641856', u'in_reply_to_screen_name': None, ...}, {u'contributors': None, u'coordinates': None, u'created_at': u'Tue Sep 01 03:39:58 +0000 2015', u'entities': {u'hashtags': [], u'media': [{u'display_url': u'pic.twitter.com/QhdozK8sVO', u'expanded_url': u'http://twitter.com/leomoon84/status/638556880646873088/photo/1', u'id': 638556880583958528, u'id_str': u'638556880583958528', u'indices': [5, 27], u'media_url': u'http://pbs.twimg.com/media/CNycGYQWoAA2KLs.jpg', u'media_url_https': u'https://pbs.twimg.com/media/CNycGYQWoAA2KLs.jpg', u'sizes': {u'large': {...}, u'medium': {...}, u'small': {...}, u'thumb': {...}}, u'type': u'photo', u'url': u'http://t.co/QhdozK8sVO'}], u'symbols': [], u'urls': [], u'user_mentions': []}, u'extended_entities': {u'media': [{u'display_url': u'pic.twitter.com/QhdozK8sVO', u'expanded_url': u'http://twitter.com/leomoon84/status/638556880646873088/photo/1', u'id': 638556880583958528, u'id_str': u'638556880583958528', u'indices': [5, 27], u'media_url': u'http://pbs.twimg.com/media/CNycGYQWoAA2KLs.jpg', u'media_url_https': u'https://pbs.twimg.com/media/CNycGYQWoAA2KLs.jpg', u'sizes': {u'large': {...}, u'medium': {...}, u'small': {...}, u'thumb': {...}}, u'type': u'photo', u'url': u'http://t.co/QhdozK8sVO'}]}, u'favorite_count': 0, u'favorited': False, u'geo': None, u'id': 638556880646873088, u'id_str': u'638556880646873088', ...}, {u'contributors': None, u'coordinates': None, u'created_at': u'Tue Sep 01 03:39:25 +0000 2015', u'entities': {u'hashtags': [{u'indices': [73, 84], u'text': u'PernixData'}, {u'indices': [100, 105], u'text': u'Todd'}, {u'indices': [106, 117], u'text': u'tallperson'}, {u'indices': [118, 126], u'text': u'VMworld'}], u'media': [{u'display_url': u'pic.twitter.com/z8O8XKS3fc', u'expanded_url': u'http://twitter.com/coolsport00/status/638556346183389184/photo/1', u'id': 638556342836334592, u'id_str': u'638556342836334592', u'indices': [127, 140], u'media_url': u'http://pbs.twimg.com/media/CNybnE_VEAAdRce.jpg', u'media_url_https': u'https://pbs.twimg.com/media/CNybnE_VEAAdRce.jpg', u'sizes': {u'large': {...}, u'medium': {...}, u'small': {...}, u'thumb': {...}}, u'source_status_id': 638556346183389184, u'source_status_id_str': u'638556346183389184', ...}], u'symbols': [], u'urls': [], u'user_mentions': [{u'id': 24762751, u'id_str': u'24762751', u'indices': [3, 15], u'name': u'Shane Williford', u'screen_name': u'coolsport00'}, {u'id': 16301927, u'id_str': u'16301927', u'indices': [17, 27], u'name': u'Todd Scalzott', u'screen_name': u'tscalzott'}, {u'id': 274709226, u'id_str': u'274709226', u'indices': [28, 41], u'name': u'Stacy Carter', u'screen_name': u'virtualstace'}, {u'id': 15806164, u'id_str': u'15806164', u'indices': [43, 52], u'name': u'Ed Grigson', u'screen_name': u'egrigson'}, {u'id': 180748219, u'id_str': u'180748219', u'indices': [54, 65], u'name': u'Adam Robinson', u'screen_name': u'omgitsadam'}]}, u'extended_entities': {u'media': [{u'display_url': u'pic.twitter.com/z8O8XKS3fc', u'expanded_url': u'http://twitter.com/coolsport00/status/638556346183389184/photo/1', u'id': 638556342836334592, u'id_str': u'638556342836334592', u'indices': [127, 140], u'media_url': u'http://pbs.twimg.com/media/CNybnE_VEAAdRce.jpg', u'media_url_https': u'https://pbs.twimg.com/media/CNybnE_VEAAdRce.jpg', u'sizes': {u'large': {...}, u'medium': {...}, u'small': {...}, u'thumb': {...}}, u'source_status_id': 638556346183389184, u'source_status_id_str': u'638556346183389184', ...}]}, u'favorite_count': 0, u'favorited': False, u'geo': None, u'id': 638556742645772288, u'id_str': u'638556742645772288', ...}, {u'contributors': None, u'coordinates': None, u'created_at': u'Tue Sep 01 03:38:16 +0000 2015', u'entities': {u'hashtags': [], u'media': [{u'display_url': u'pic.twitter.com/CVZoWXrcQB', u'expanded_url': u'http://twitter.com/stephenjenkin/status/638551131698937856/photo/1', u'id': 638551100589801472, u'id_str': u'638551100589801472', u'indices': [87, 109], u'media_url': u'http://pbs.twimg.com/media/CNyW18GXAAAXViC.jpg', u'media_url_https': u'https://pbs.twimg.com/media/CNyW18GXAAAXViC.jpg', u'sizes': {u'large': {...}, u'medium': {...}, u'small': {...}, u'thumb': {...}}, u'source_status_id': 638551131698937856, u'source_status_id_str': u'638551131698937856', ...}], u'symbols': [], u'urls': [{u'display_url': u'bbc.co.uk/news/world-mid\\u2026', u'expanded_url': u'http://www.bbc.co.uk/news/world-middle-east-34111092', u'indices': [64, 86], u'url': u'http://t.co/hqZLlP5mw1'}], u'user_mentions': [{u'id': 316686040, u'id_str': u'316686040', u'indices': [16, 30], u'name': u'The Classics Library', u'screen_name': u'stephenjenkin'}]}, u'extended_entities': {u'media': [{u'display_url': u'pic.twitter.com/CVZoWXrcQB', u'expanded_url': u'http://twitter.com/stephenjenkin/status/638551131698937856/photo/1', u'id': 638551100589801472, u'id_str': u'638551100589801472', u'indices': [87, 109], u'media_url': u'http://pbs.twimg.com/media/CNyW18GXAAAXViC.jpg', u'media_url_https': u'https://pbs.twimg.com/media/CNyW18GXAAAXViC.jpg', u'sizes': {u'large': {...}, u'medium': {...}, u'small': {...}, u'thumb': {...}}, u'source_status_id': 638551131698937856, u'source_status_id_str': u'638551131698937856', ...}]}, u'favorite_count': 1, u'favorited': False, u'geo': None, u'id': 638556451967922176, u'id_str': u'638556451967922176', ...}, {u'contributors': None, u'coordinates': None, u'created_at': u'Tue Sep 01 03:37:37 +0000 2015', u'entities': {u'hashtags': [{u'indices': [43, 51], u'text': u'CuteOff'}, {u'indices': [52, 68], u'text': u'TeamHerpetology'}, {u'indices': [86, 101], u'text': u'TeamEntomology'}], u'media': [{u'display_url': u'pic.twitter.com/FKMWJHnoFL', u'expanded_url': u'http://twitter.com/FieldEcology/status/638550340040724480/photo/1', u'id': 638550328246317056, u'id_str': u'638550328246317056', u'indices': [102, 124], u'media_url': u'http://pbs.twimg.com/media/CNyWI-5UsAA96PM.jpg', u'media_url_https': u'https://pbs.twimg.com/media/CNyWI-5UsAA96PM.jpg', u'sizes': {u'large': {...}, u'medium': {...}, u'small': {...}, u'thumb': {...}}, u'source_status_id': 638550340040724480, u'source_status_id_str': u'638550340040724480', ...}], u'symbols': [], u'urls': [], u'user_mentions': [{u'id': 1708744208, u'id_str': u'1708744208', u'indices': [3, 16], u'name': u'Christopher E. Smith', u'screen_name': u'FieldEcology'}]}, u'extended_entities': {u'media': [{u'display_url': u'pic.twitter.com/FKMWJHnoFL', u'expanded_url': u'http://twitter.com/FieldEcology/status/638550340040724480/photo/1', u'id': 638550328246317056, u'id_str': u'638550328246317056', u'indices': [102, 124], u'media_url': u'http://pbs.twimg.com/media/CNyWI-5UsAA96PM.jpg', u'media_url_https': u'https://pbs.twimg.com/media/CNyWI-5UsAA96PM.jpg', u'sizes': {u'large': {...}, u'medium': {...}, u'small': {...}, u'thumb': {...}}, u'source_status_id': 638550340040724480, u'source_status_id_str': u'638550340040724480', ...}, {u'display_url': u'pic.twitter.com/FKMWJHnoFL', u'expanded_url': u'http://twitter.com/FieldEcology/status/638550340040724480/photo/1', u'id': 638550328258924544, u'id_str': u'638550328258924544', u'indices': [102, 124], u'media_url': u'http://pbs.twimg.com/media/CNyWI-8VEAAg5jI.jpg', u'media_url_https': u'https://pbs.twimg.com/media/CNyWI-8VEAAg5jI.jpg', u'sizes': {u'large': {...}, u'medium': {...}, u'small': {...}, u'thumb': {...}}, u'source_status_id': 638550340040724480, u'source_status_id_str': u'638550340040724480', ...}, {u'display_url': u'pic.twitter.com/FKMWJHnoFL', u'expanded_url': u'http://twitter.com/FieldEcology/status/638550340040724480/photo/1', u'id': 638550328275632128, u'id_str': u'638550328275632128', u'indices': [102, 124], u'media_url': u'http://pbs.twimg.com/media/CNyWI_AUAAAFpuk.jpg', u'media_url_https': u'https://pbs.twimg.com/media/CNyWI_AUAAAFpuk.jpg', u'sizes': {u'large': {...}, u'medium': {...}, u'small': {...}, u'thumb': {...}}, u'source_status_id': 638550340040724480, u'source_status_id_str': u'638550340040724480', ...}]}, u'favorite_count': 0, u'favorited': False, u'geo': None, u'id': 638556287584702466, u'id_str': u'638556287584702466', ...}, {u'contributors': None, u'coordinates': None, u'created_at': u'Tue Sep 01 03:37:21 +0000 2015', u'entities': {u'hashtags': [], u'symbols': [], u'urls': [], u'user_mentions': []}, u'favorite_count': 0, u'favorited': False, u'geo': None, u'id': 638556219959971840, u'id_str': u'638556219959971840', u'in_reply_to_screen_name': None, ...}, {u'contributors': None, u'coordinates': None, u'created_at': u'Tue Sep 01 03:37:06 +0000 2015', u'entities': {u'hashtags': [], u'symbols': [], u'urls': [], u'user_mentions': [{u'id': 15956067, u'id_str': u'15956067', u'indices': [3, 17], u'name': u'Jose Antonio Vargas', u'screen_name': u'joseiswriting'}]}, u'favorite_count': 0, u'favorited': False, u'geo': None, u'id': 638556159146766336, u'id_str': u'638556159146766336', u'in_reply_to_screen_name': None, ...}, {u'contributors': None, u'coordinates': None, u'created_at': u'Tue Sep 01 03:35:38 +0000 2015', u'entities': {u'hashtags': [{u'indices': [83, 94], u'text': u'technology'}], u'symbols': [], u'urls': [{u'display_url': u'bit.ly/1N67mMW', u'expanded_url': u'http://bit.ly/1N67mMW', u'indices': [60, 82], u'url': u'http://t.co/IhLlpoF0k7'}], u'user_mentions': []}, u'favorite_count': 0, u'favorited': False, u'geo': None, u'id': 638555788424937473, u'id_str': u'638555788424937473', u'in_reply_to_screen_name': None, ...}]"
p161
sS'twitter'
p162
S'<Twython: N9Eu9N9iUX4MSHu8ryq8krrnH>'
p163
sS'data'
p164
S"{u'contributors': None, u'coordinates': None, u'created_at': u'Tue Sep 01 03:35:38 +0000 2015', u'entities': {u'hashtags': [{u'indices': [83, 94], u'text': u'technology'}], u'symbols': [], u'urls': [{u'display_url': u'bit.ly/1N67mMW', u'expanded_url': u'http://bit.ly/1N67mMW', u'indices': [60, 82], u'url': u'http://t.co/IhLlpoF0k7'}], u'user_mentions': []}, u'favorite_count': 0, u'favorited': False, u'geo': None, u'id': 638555788424937473, u'id_str': u'638555788424937473', u'in_reply_to_screen_name': None, ...}"
p165
sssS'traceback'
p166
S'Traceback (most recent call last):\n  File "/home/www-data/web2py/gluon/restricted.py", line 227, in restricted\n    exec ccode in environment\n  File "/home/www-data/web2py/applications/init/controllers/dashboard.py", line 16, in <module>\n  File "/home/www-data/web2py/gluon/globals.py", line 412, in <lambda>\n    self._caller = lambda f: f()\n  File "/home/www-data/web2py/applications/init/controllers/dashboard.py", line 14, in index\n    return dict(message=("Timeline for @%s" % session.SCREENNAME), timeline=tweets, screen_name=screen_name)\nNameError: global name \'screen_name\' is not defined\n'
p167
s.