(dp1
S'output'
p2
S"<class 'twython.exceptions.TwythonAuthError'> Twitter API returned a 401 (Unauthorized), An error occurred processing your request."
p3
sS'layer'
p4
S'/home/www-data/web2py/applications/init/controllers/dashboard.py'
p5
sS'code'
p6
S'# -*- coding: utf-8 -*-\n# try something like\nfrom twython import Twython\nimport os, json, sys\nfrom collections import Counter\nfrom textblob import TextBlob\nimport requests\nimport myglobals\n\n\ndef index():\n    if not session.SCREENNAME:\n        redirect(\'/\')\n    response.title = \'Dashboard\'\n    tweets = []\n    try:\n        twitter = Twython(myglobals.APP_KEY, myglobals.APP_SECRET, session.USER_OAUTH_TOKEN, session.USER_OAUTH_TOKEN_SECRET)\n        timeline = twitter.get_user_timeline(screen_name=session.SCREENNAME, count=20)\n        tweets = []\n        for data in timeline:\n            created = data[\'created_at\'].split(\'+\')[0].strip().split(\' \')\n            short = created[0]+\'-\'+created[1]+\'-\'+created[2]\n            user = "@"+data[\'user\'][\'screen_name\']\n            url = \'\'\n            text = data[\'text\']+\' \'+url\n            image = data[\'user\'][\'profile_image_url\']\n            if text.split(\' @\')[0]==\'RT\':\n                user = text.strip(\'RT\').split(\':\')[0]\n                text = text.split(\':\')[1]\n                image = data[\'retweeted_status\'][\'user\'][\'profile_image_url\']\n                if data[\'retweeted_status\'][\'entities\'][\'urls\']:\n                    url = data[\'retweeted_status\'][\'entities\'][\'urls\'][0][\'url\']\n            session.HOMEPAGE = \'https://twitter.com/%s\' % user.split(\'@\')[1]\n            userlink = A(B(user),_class=\'user-homepage-link\', _href=session.HOMEPAGE)\n            textdiv = DIV(userlink, P(text, _class="tweet-text"), A(_href=url))\n            tuple1 = (IMG(_src=image, _class="twitter-timeline-user-image"), textdiv)\n            tweet = [ tuple1 ]\n            tweets.append(tweet)\n    except Exception as e:\n            tweets = e\n\n    return dict(message=twitter.show_user(screen_name=session.SCREENNAME), timeline=tweets)\n\n\ndef metrics():\n    BUBBLE_STATS = bubblestats()\n    twitter = Twython(myglobals.APP_KEY, myglobals.APP_SECRET, session.USER_OAUTH_TOKEN, session.USER_OAUTH_TOKEN_SECRET)\n    timeline = twitter.get_user_timeline(screen_name=session.SCREENNAME, count=500)\n    hashtags = []\n    for data in timeline:\n        hashtags = [ tag[\'text\'].encode(\'utf-8\').lower() for tag in data[\'entities\'][\'hashtags\'] ]\n        BUBBLE_STATS.update( trends=hashtags )\n    url = \'http://0.0.0.0/init/default/metrics\'\n    return json.dumps({"name":"hashtags","links":[{"rel":"self","href": url}],"counts": BUBBLE_STATS.trend_count })\n\n\ndef sentiment():\n    PIE_STATS = piestats()\n    twitter = Twython(myglobals.APP_KEY, myglobals.APP_SECRET, session.USER_OAUTH_TOKEN, session.USER_OAUTH_TOKEN_SECRET)\n    timeline = twitter.get_user_timeline(screen_name=session.SCREENNAME, count=500)\n    for data in timeline:\n        value = \'Neutral\'\n        sentiment = TextBlob(data[\'text\']).sentiment.polarity\n        if sentiment < 0:\n            value = \'Bad\'\n        elif sentiment > 0:\n            value = \'Good\'\n        PIE_STATS.update( sentiment=[value] )\n    url = \'http://0.0.0.0:/init/default/sentiment\'\n    return json.dumps({"name":"sentiment","links":[{"rel":"self","href": url}],"counts": PIE_STATS.sentiment_count })\n\n#---------------------------------------------------------------\n#\n# bubblestats: keeps track of the tag count in the bubble chart\n#\n#---------------------------------------------------------------\nclass bubblestats:\n        def __init__(self):\n                self.trend_raw = []\n                self.trend_count = Counter()\n        def update(self, trends=[]):\n                # this keeps track of the size of the bubble chart\n                if len(self.trend_raw) >= 10000:\n                        self.trend_raw = []\n                        self.trend_count = Counter()\n                else:\n                        self.trend_raw.extend(trends)\n                        self.trend_count = Counter( self.trend_raw )\n                        top20 = self.trend_count.most_common(20)\n                        self.trend_raw = []\n                        for tag, num in top20:\n                            for i in range(0, num):\n                                self.trend_raw.append(tag)\n                        self.trend_count = Counter( self.trend_raw )\n                        session.TRACK = [tag.lower() for tag, num in top20 ]\n                   \n\n\n        def add(self, trends=[]):\n                # this lets the bubble chart grow bigger\n                self.trend_count = Counter(trends) + self.trend_count\n\n\nclass piestats:\n        def __init__(self):\n                self.sentiment_raw = []\n                self.sentiment_count = Counter()\n\n        def update(self, sentiment=[]):\n                # this keeps track of the size of the pie chart\n                if len(self.sentiment_raw) >= sys.maxint:\n                        self.sentiment_raw = []\n                        self.sentiment_count = Counter()\n                else:\n                        self.sentiment_raw.extend(sentiment)\n                        self.sentiment_count = Counter( self.sentiment_raw )\n                        self.sentiment_count.most_common()\n        def add(self, sentiment=[]):\n                self.sentiment_count = Counter(sentiment) + self.sentiment_count\n\nresponse._vars=response._caller(metrics)\n'
p7
sS'snapshot'
p8
(dp9
S'exception'
p10
(dp11
S'__module__'
p12
S"'twython.exceptions'"
p13
sS'__getslice__'
p14
S"<method-wrapper '__getslice__' of TwythonAuthError object>"
p15
sS'__str__'
p16
S"<method-wrapper '__str__' of TwythonAuthError object>"
p17
sS'__reduce__'
p18
S'<built-in method __reduce__ of TwythonAuthError object>'
p19
sS'__dict__'
p20
S"{'error_code': 401}"
p21
sS'__sizeof__'
p22
S'<built-in method __sizeof__ of TwythonAuthError object>'
p23
sS'__weakref__'
p24
S'None'
p25
sS'__init__'
p26
S"<bound method TwythonAuthError.__init__ of Twyth...), An error occurred processing your request.',)>"
p27
sS'__setattr__'
p28
S"<method-wrapper '__setattr__' of TwythonAuthError object>"
p29
sS'__reduce_ex__'
p30
S'<built-in method __reduce_ex__ of TwythonAuthError object>'
p31
sS'__new__'
p32
S'<built-in method __new__ of type object>'
p33
sS'__format__'
p34
S'<built-in method __format__ of TwythonAuthError object>'
p35
sS'__class__'
p36
S"<class 'twython.exceptions.TwythonAuthError'>"
p37
sS'msg'
p38
S"'Twitter API returned a 401 (Unauthorized), An error occurred processing your request.'"
p39
sS'__doc__'
p40
S"'Raised when you try to access a protected resour...to\\n    some issue with your authentication.\\n\\n    '"
p41
sS'__getitem__'
p42
S"<method-wrapper '__getitem__' of TwythonAuthError object>"
p43
sS'__setstate__'
p44
S'<built-in method __setstate__ of TwythonAuthError object>'
p45
sS'__getattribute__'
p46
S"<method-wrapper '__getattribute__' of TwythonAuthError object>"
p47
sS'args'
p48
S"('Twitter API returned a 401 (Unauthorized), An error occurred processing your request.',)"
p49
sS'__subclasshook__'
p50
S'<built-in method __subclasshook__ of type object>'
p51
sS'__unicode__'
p52
S'<built-in method __unicode__ of TwythonAuthError object>'
p53
sS'__delattr__'
p54
S"<method-wrapper '__delattr__' of TwythonAuthError object>"
p55
sS'__repr__'
p56
S"<method-wrapper '__repr__' of TwythonAuthError object>"
p57
sS'__hash__'
p58
S"<method-wrapper '__hash__' of TwythonAuthError object>"
p59
sS'error_code'
p60
S'401'
p61
ssS'evalue'
p62
S'Twitter API returned a 401 (Unauthorized), An error occurred processing your request.'
p63
sS'request'
p64
cgluon.html
XML_unpickle
p65
(S'sy}\x00\x00<div><table><tr><td style="font-weight:bold;vertical-align:top;">ajax</td><td style="vertical-align:top;">:</td><td><div>False</div></td></tr><tr><td style="font-weight:bold;vertical-align:top;">application</td><td style="vertical-align:top;">:</td><td><div>init</div></td></tr><tr><td style="font-weight:bold;vertical-align:top;">args</td><td style="vertical-align:top;">:</td><td><div><table></table></div></td></tr><tr><td style="font-weight:bold;vertical-align:top;">cid</td><td style="vertical-align:top;">:</td><td><div>None</div></td></tr><tr><td style="font-weight:bold;vertical-align:top;">client</td><td style="vertical-align:top;">:</td><td><div>192.168.56.1</div></td></tr><tr><td style="font-weight:bold;vertical-align:top;">controller</td><td style="vertical-align:top;">:</td><td><div>dashboard</div></td></tr><tr><td style="font-weight:bold;vertical-align:top;">cookies</td><td style="vertical-align:top;">:</td><td><div><table><tr><td style="font-weight:bold;vertical-align:top;">session_id_admin</td><td style="vertical-align:top;">:</td><td><div>192.168.56.1-d12a00ed-961a-4f3a-a3f4-955dd0f254c5<table><tr><td style="font-weight:bold;vertical-align:top;">comment</td><td style="vertical-align:top;">:</td><td><div></div></td></tr><tr><td style="font-weight:bold;vertical-align:top;">domain</td><td style="vertical-align:top;">:</td><td><div></div></td></tr><tr><td style="font-weight:bold;vertical-align:top;">expires</td><td style="vertical-align:top;">:</td><td><div></div></td></tr><tr><td style="font-weight:bold;vertical-align:top;">httponly</td><td style="vertical-align:top;">:</td><td><div></div></td></tr><tr><td style="font-weight:bold;vertical-align:top;">max-age</td><td style="vertical-align:top;">:</td><td><div></div></td></tr><tr><td style="font-weight:bold;vertical-align:top;">path</td><td style="vertical-align:top;">:</td><td><div></div></td></tr><tr><td style="font-weight:bold;vertical-align:top;">secure</td><td style="vertical-align:top;">:</td><td><div></div></td></tr><tr><td style="font-weight:bold;vertical-align:top;">version</td><td style="vertical-align:top;">:</td><td><div></div></td></tr></table></div></td></tr><tr><td style="font-weight:bold;vertical-align:top;">session_id_hrcexplorer</td><td style="vertical-align:top;">:</td><td><div>192.168.56.1-9b2fefff-e522-4932-b1af-6e0f5be6f0a1<table><tr><td style="font-weight:bold;vertical-align:top;">comment</td><td style="vertical-align:top;">:</td><td><div></div></td></tr><tr><td style="font-weight:bold;vertical-align:top;">domain</td><td style="vertical-align:top;">:</td><td><div></div></td></tr><tr><td style="font-weight:bold;vertical-align:top;">expires</td><td style="vertical-align:top;">:</td><td><div></div></td></tr><tr><td style="font-weight:bold;vertical-align:top;">httponly</td><td style="vertical-align:top;">:</td><td><div></div></td></tr><tr><td style="font-weight:bold;vertical-align:top;">max-age</td><td style="vertical-align:top;">:</td><td><div></div></td></tr><tr><td style="font-weight:bold;vertical-align:top;">path</td><td style="vertical-align:top;">:</td><td><div></div></td></tr><tr><td style="font-weight:bold;vertical-align:top;">secure</td><td style="vertical-align:top;">:</td><td><div></div></td></tr><tr><td style="font-weight:bold;vertical-align:top;">version</td><td style="vertical-align:top;">:</td><td><div></div></td></tr></table></div></td></tr><tr><td style="font-weight:bold;vertical-align:top;">session_id_init</td><td style="vertical-align:top;">:</td><td><div>192.168.56.1-8bc0e114-a48c-4586-9442-334a1b860e3b<table><tr><td style="font-weight:bold;vertical-align:top;">comment</td><td style="vertical-align:top;">:</td><td><div></div></td></tr><tr><td style="font-weight:bold;vertical-align:top;">domain</td><td style="vertical-align:top;">:</td><td><div></div></td></tr><tr><td style="font-weight:bold;vertical-align:top;">expires</td><td style="vertical-align:top;">:</td><td><div></div></td></tr><tr><td style="font-weight:bold;vertical-align:top;">httponly</td><td style="vertical-align:top;">:</td><td><div></div></td></tr><tr><td style="font-weight:bold;vertical-align:top;">max-age</td><td style="vertical-align:top;">:</td><td><div></div></td></tr><tr><td style="font-weight:bold;vertical-align:top;">path</td><td style="vertical-align:top;">:</td><td><div></div></td></tr><tr><td style="font-weight:bold;vertical-align:top;">secure</td><td style="vertical-align:top;">:</td><td><div></div></td></tr><tr><td style="font-weight:bold;vertical-align:top;">version</td><td style="vertical-align:top;">:</td><td><div></div></td></tr></table></div></td></tr><tr><td style="font-weight:bold;vertical-align:top;">session_id_jetexplorer</td><td style="vertical-align:top;">:</td><td><div>192.168.56.1-a7a6f093-5af1-4864-a620-0f1451f0c7b6<table><tr><td style="font-weight:bold;vertical-align:top;">comment</td><td style="vertical-align:top;">:</td><td><div></div></td></tr><tr><td style="font-weight:bold;vertical-align:top;">domain</td><td style="vertical-align:top;">:</td><td><div></div></td></tr><tr><td style="font-weight:bold;vertical-align:top;">expires</td><td style="vertical-align:top;">:</td><td><div></div></td></tr><tr><td style="font-weight:bold;vertical-align:top;">httponly</td><td style="vertical-align:top;">:</td><td><div></div></td></tr><tr><td style="font-weight:bold;vertical-align:top;">max-age</td><td style="vertical-align:top;">:</td><td><div></div></td></tr><tr><td style="font-weight:bold;vertical-align:top;">path</td><td style="vertical-align:top;">:</td><td><div></div></td></tr><tr><td style="font-weight:bold;vertical-align:top;">secure</td><td style="vertical-align:top;">:</td><td><div></div></td></tr><tr><td style="font-weight:bold;vertical-align:top;">version</td><td style="vertical-align:top;">:</td><td><div></div></td></tr></table></div></td></tr><tr><td style="font-weight:bold;vertical-align:top;">session_id_lockheed</td><td style="vertical-align:top;">:</td><td><div>192.168.56.1-1b96a350-49cc-46e2-8fe2-1ea03dc887f0<table><tr><td style="font-weight:bold;vertical-align:top;">comment</td><td style="vertical-align:top;">:</td><td><div></div></td></tr><tr><td style="font-weight:bold;vertical-align:top;">domain</td><td style="vertical-align:top;">:</td><td><div></div></td></tr><tr><td style="font-weight:bold;vertical-align:top;">expires</td><td style="vertical-align:top;">:</td><td><div></div></td></tr><tr><td style="font-weight:bold;vertical-align:top;">httponly</td><td style="vertical-align:top;">:</td><td><div></div></td></tr><tr><td style="font-weight:bold;vertical-align:top;">max-age</td><td style="vertical-align:top;">:</td><td><div></div></td></tr><tr><td style="font-weight:bold;vertical-align:top;">path</td><td style="vertical-align:top;">:</td><td><div></div></td></tr><tr><td style="font-weight:bold;vertical-align:top;">secure</td><td style="vertical-align:top;">:</td><td><div></div></td></tr><tr><td style="font-weight:bold;vertical-align:top;">version</td><td style="vertical-align:top;">:</td><td><div></div></td></tr></table></div></td></tr><tr><td style="font-weight:bold;vertical-align:top;">session_id_test</td><td style="vertical-align:top;">:</td><td><div>192.168.56.1-4574d531-8bf7-4b67-88b3-7ef6352d22b5<table><tr><td style="font-weight:bold;vertical-align:top;">comment</td><td style="vertical-align:top;">:</td><td><div></div></td></tr><tr><td style="font-weight:bold;vertical-align:top;">domain</td><td style="vertical-align:top;">:</td><td><div></div></td></tr><tr><td style="font-weight:bold;vertical-align:top;">expires</td><td style="vertical-align:top;">:</td><td><div></div></td></tr><tr><td style="font-weight:bold;vertical-align:top;">httponly</td><td style="vertical-align:top;">:</td><td><div></div></td></tr><tr><td style="font-weight:bold;vertical-align:top;">max-age</td><td style="vertical-align:top;">:</td><td><div></div></td></tr><tr><td style="font-weight:bold;vertical-align:top;">path</td><td style="vertical-align:top;">:</td><td><div></div></td></tr><tr><td style="font-weight:bold;vertical-align:top;">secure</td><td style="vertical-align:top;">:</td><td><div></div></td></tr><tr><td style="font-weight:bold;vertical-align:top;">version</td><td style="vertical-align:top;">:</td><td><div></div></td></tr></table></div></td></tr><tr><td style="font-weight:bold;vertical-align:top;">session_id_welcome</td><td style="vertical-align:top;">:</td><td><div>192.168.56.1-1df545f1-d577-4d48-ae1d-3cc8ff8b001d<table><tr><td style="font-weight:bold;vertical-align:top;">comment</td><td style="vertical-align:top;">:</td><td><div></div></td></tr><tr><td style="font-weight:bold;vertical-align:top;">domain</td><td style="vertical-align:top;">:</td><td><div></div></td></tr><tr><td style="font-weight:bold;vertical-align:top;">expires</td><td style="vertical-align:top;">:</td><td><div></div></td></tr><tr><td style="font-weight:bold;vertical-align:top;">httponly</td><td style="vertical-align:top;">:</td><td><div></div></td></tr><tr><td style="font-weight:bold;vertical-align:top;">max-age</td><td style="vertical-align:top;">:</td><td><div></div></td></tr><tr><td style="font-weight:bold;vertical-align:top;">path</td><td style="vertical-align:top;">:</td><td><div></div></td></tr><tr><td style="font-weight:bold;vertical-align:top;">secure</td><td style="vertical-align:top;">:</td><td><div></div></td></tr><tr><td style="font-weight:bold;vertical-align:top;">version</td><td style="vertical-align:top;">:</td><td><div></div></td></tr></table></div></td></tr></table></div></td></tr><tr><td style="font-weight:bold;vertical-align:top;">env</td><td style="vertical-align:top;">:</td><td><div><table><tr><td style="font-weight:bold;vertical-align:top;">CONTEXT_DOCUMENT_ROOT</td><td style="vertical-align:top;">:</td><td><div>/var/www</div></td></tr><tr><td style="font-weight:bold;vertical-align:top;">CONTEXT_PREFIX</td><td style="vertical-align:top;">:</td><td><div></div></td></tr><tr><td style="font-weight:bold;vertical-align:top;">DOCUMENT_ROOT</td><td style="vertical-align:top;">:</td><td><div>/var/www</div></td></tr><tr><td style="font-weight:bold;vertical-align:top;">GATEWAY_INTERFACE</td><td style="vertical-align:top;">:</td><td><div>CGI/1.1</div></td></tr><tr><td style="font-weight:bold;vertical-align:top;">HTTP_ACCEPT</td><td style="vertical-align:top;">:</td><td><div>application/json,*/*</div></td></tr><tr><td style="font-weight:bold;vertical-align:top;">HTTP_ACCEPT_ENCODING</td><td style="vertical-align:top;">:</td><td><div>gzip, deflate, sdch</div></td></tr><tr><td style="font-weight:bold;vertical-align:top;">HTTP_ACCEPT_LANGUAGE</td><td style="vertical-align:top;">:</td><td><div>en-US,en;q=0.8,pl;q=0.6</div></td></tr><tr><td style="font-weight:bold;vertical-align:top;">HTTP_CONNECTION</td><td style="vertical-align:top;">:</td><td><div>keep-alive</div></td></tr><tr><td style="font-weight:bold;vertical-align:top;">HTTP_COOKIE</td><td style="vertical-align:top;">:</td><td><div>session_id_lockheed=192.168.56.1-1b96a350-49cc-46e2-8fe2-1ea03dc887f0; session_id_hrcexplorer=192.168.56.1-9b2fefff-e522-4932-b1af-6e0f5be6f0a1; session_id_jetexplorer=192.168.56.1-a7a6f093-5af1-4864-a620-0f1451f0c7b6; session_id_welcome=192.168.56.1-1df545f1-d577-4d48-ae1d-3cc8ff8b001d; session_id_test=192.168.56.1-4574d531-8bf7-4b67-88b3-7ef6352d22b5; session_id_init=192.168.56.1-8bc0e114-a48c-4586-9442-334a1b860e3b; session_id_admin=192.168.56.1-d12a00ed-961a-4f3a-a3f4-955dd0f254c5</div></td></tr><tr><td style="font-weight:bold;vertical-align:top;">HTTP_HOST</td><td style="vertical-align:top;">:</td><td><div>devbox</div></td></tr><tr><td style="font-weight:bold;vertical-align:top;">HTTP_REFERER</td><td style="vertical-align:top;">:</td><td><div>https://devbox/init/dashboard</div></td></tr><tr><td style="font-weight:bold;vertical-align:top;">HTTP_USER_AGENT</td><td style="vertical-align:top;">:</td><td><div>Mozilla/5.0 (Macintosh; Intel Mac OS X 10_9_5) AppleWebKit/537.36 (KHTML, like Gecko) Chrome/45.0.2454.85 Safari/537.36</div></td></tr><tr><td style="font-weight:bold;vertical-align:top;">PATH_INFO</td><td style="vertical-align:top;">:</td><td><div>/init/dashboard/metrics</div></td></tr><tr><td style="font-weight:bold;vertical-align:top;">PATH_TRANSLATED</td><td style="vertical-align:top;">:</td><td><div>/home/www-data/web2py/wsgihandler.py/init/dashboard/metrics</div></td></tr><tr><td style="font-weight:bold;vertical-align:top;">QUERY_STRING</td><td style="vertical-align:top;">:</td><td><div></div></td></tr><tr><td style="font-weight:bold;vertical-align:top;">REMOTE_ADDR</td><td style="vertical-align:top;">:</td><td><div>192.168.56.1</div></td></tr><tr><td style="font-weight:bold;vertical-align:top;">REMOTE_PORT</td><td style="vertical-align:top;">:</td><td><div>58130</div></td></tr><tr><td style="font-weight:bold;vertical-align:top;">REQUEST_METHOD</td><td style="vertical-align:top;">:</td><td><div>GET</div></td></tr><tr><td style="font-weight:bold;vertical-align:top;">REQUEST_SCHEME</td><td style="vertical-align:top;">:</td><td><div>https</div></td></tr><tr><td style="font-weight:bold;vertical-align:top;">REQUEST_URI</td><td style="vertical-align:top;">:</td><td><div>/init/dashboard/metrics</div></td></tr><tr><td style="font-weight:bold;vertical-align:top;">SCRIPT_FILENAME</td><td style="vertical-align:top;">:</td><td><div>/home/www-data/web2py/wsgihandler.py</div></td></tr><tr><td style="font-weight:bold;vertical-align:top;">SCRIPT_NAME</td><td style="vertical-align:top;">:</td><td><div></div></td></tr><tr><td style="font-weight:bold;vertical-align:top;">SERVER_ADDR</td><td style="vertical-align:top;">:</td><td><div>192.168.56.101</div></td></tr><tr><td style="font-weight:bold;vertical-align:top;">SERVER_ADMIN</td><td style="vertical-align:top;">:</td><td><div>[no address given]</div></td></tr><tr><td style="font-weight:bold;vertical-align:top;">SERVER_NAME</td><td style="vertical-align:top;">:</td><td><div>devbox</div></td></tr><tr><td style="font-weight:bold;vertical-align:top;">SERVER_PORT</td><td style="vertical-align:top;">:</td><td><div>443</div></td></tr><tr><td style="font-weight:bold;vertical-align:top;">SERVER_PROTOCOL</td><td style="vertical-align:top;">:</td><td><div>HTTP/1.1</div></td></tr><tr><td style="font-weight:bold;vertical-align:top;">SERVER_SIGNATURE</td><td style="vertical-align:top;">:</td><td><div>&lt;address&gt;Apache/2.4.7 (Ubuntu) Server at devbox Port 443&lt;/address&gt;\n</div></td></tr><tr><td style="font-weight:bold;vertical-align:top;">SERVER_SOFTWARE</td><td style="vertical-align:top;">:</td><td><div>Apache/2.4.7 (Ubuntu)</div></td></tr><tr><td style="font-weight:bold;vertical-align:top;">SSL_TLS_SNI</td><td style="vertical-align:top;">:</td><td><div>devbox</div></td></tr><tr><td style="font-weight:bold;vertical-align:top;">app_folders</td><td style="vertical-align:top;">:</td><td><div>set([&#x27;/home/www-data/web2py/applications/admin/&#x27;, &#x27;/home/www-data/web2py/applications/init/&#x27;])</div></td></tr><tr><td style="font-weight:bold;vertical-align:top;">applications_parent</td><td style="vertical-align:top;">:</td><td><div>/home/www-data/web2py</div></td></tr><tr><td style="font-weight:bold;vertical-align:top;">context_document_root</td><td style="vertical-align:top;">:</td><td><div>/var/www</div></td></tr><tr><td style="font-weight:bold;vertical-align:top;">context_prefix</td><td style="vertical-align:top;">:</td><td><div></div></td></tr><tr><td style="font-weight:bold;vertical-align:top;">db_sessions</td><td style="vertical-align:top;">:</td><td><div>set([])</div></td></tr><tr><td style="font-weight:bold;vertical-align:top;">debugging</td><td style="vertical-align:top;">:</td><td><div>True</div></td></tr><tr><td style="font-weight:bold;vertical-align:top;">document_root</td><td style="vertical-align:top;">:</td><td><div>/var/www</div></td></tr><tr><td style="font-weight:bold;vertical-align:top;">gateway_interface</td><td style="vertical-align:top;">:</td><td><div>CGI/1.1</div></td></tr><tr><td style="font-weight:bold;vertical-align:top;">gluon_parent</td><td style="vertical-align:top;">:</td><td><div>/home/www-data/web2py</div></td></tr><tr><td style="font-weight:bold;vertical-align:top;">http_accept</td><td style="vertical-align:top;">:</td><td><div>application/json,*/*</div></td></tr><tr><td style="font-weight:bold;vertical-align:top;">http_accept_encoding</td><td style="vertical-align:top;">:</td><td><div>gzip, deflate, sdch</div></td></tr><tr><td style="font-weight:bold;vertical-align:top;">http_accept_language</td><td style="vertical-align:top;">:</td><td><div>en-US,en;q=0.8,pl;q=0.6</div></td></tr><tr><td style="font-weight:bold;vertical-align:top;">http_connection</td><td style="vertical-align:top;">:</td><td><div>keep-alive</div></td></tr><tr><td style="font-weight:bold;vertical-align:top;">http_cookie</td><td style="vertical-align:top;">:</td><td><div>session_id_lockheed=192.168.56.1-1b96a350-49cc-46e2-8fe2-1ea03dc887f0; session_id_hrcexplorer=192.168.56.1-9b2fefff-e522-4932-b1af-6e0f5be6f0a1; session_id_jetexplorer=192.168.56.1-a7a6f093-5af1-4864-a620-0f1451f0c7b6; session_id_welcome=192.168.56.1-1df545f1-d577-4d48-ae1d-3cc8ff8b001d; session_id_test=192.168.56.1-4574d531-8bf7-4b67-88b3-7ef6352d22b5; session_id_init=192.168.56.1-8bc0e114-a48c-4586-9442-334a1b860e3b; session_id_admin=192.168.56.1-d12a00ed-961a-4f3a-a3f4-955dd0f254c5</div></td></tr><tr><td style="font-weight:bold;vertical-align:top;">http_host</td><td style="vertical-align:top;">:</td><td><div>devbox</div></td></tr><tr><td style="font-weight:bold;vertical-align:top;">http_referer</td><td style="vertical-align:top;">:</td><td><div>https://devbox/init/dashboard</div></td></tr><tr><td style="font-weight:bold;vertical-align:top;">http_user_agent</td><td style="vertical-align:top;">:</td><td><div>Mozilla/5.0 (Macintosh; Intel Mac OS X 10_9_5) AppleWebKit/537.36 (KHTML, like Gecko) Chrome/45.0.2454.85 Safari/537.36</div></td></tr><tr><td style="font-weight:bold;vertical-align:top;">is_jython</td><td style="vertical-align:top;">:</td><td><div>False</div></td></tr><tr><td style="font-weight:bold;vertical-align:top;">is_pypy</td><td style="vertical-align:top;">:</td><td><div>False</div></td></tr><tr><td style="font-weight:bold;vertical-align:top;">is_source</td><td style="vertical-align:top;">:</td><td><div>True</div></td></tr><tr><td style="font-weight:bold;vertical-align:top;">local_hosts</td><td style="vertical-align:top;">:</td><td><div><table><tr><td><div>devbox</div></td></tr><tr><td><div>::1</div></td></tr><tr><td><div>127.0.1.1</div></td></tr><tr><td><div>::ffff:127.0.0.1</div></td></tr><tr><td><div>127.0.0.1</div></td></tr></table></div></td></tr><tr><td style="font-weight:bold;vertical-align:top;">mod_wsgi.application_group</td><td style="vertical-align:top;">:</td><td><div>127.0.1.1|</div></td></tr><tr><td style="font-weight:bold;vertical-align:top;">mod_wsgi.callable_object</td><td style="vertical-align:top;">:</td><td><div>application</div></td></tr><tr><td style="font-weight:bold;vertical-align:top;">mod_wsgi.enable_sendfile</td><td style="vertical-align:top;">:</td><td><div>0</div></td></tr><tr><td style="font-weight:bold;vertical-align:top;">mod_wsgi.handler_script</td><td style="vertical-align:top;">:</td><td><div></div></td></tr><tr><td style="font-weight:bold;vertical-align:top;">mod_wsgi.input_chunked</td><td style="vertical-align:top;">:</td><td><div>0</div></td></tr><tr><td style="font-weight:bold;vertical-align:top;">mod_wsgi.listener_host</td><td style="vertical-align:top;">:</td><td><div></div></td></tr><tr><td style="font-weight:bold;vertical-align:top;">mod_wsgi.listener_port</td><td style="vertical-align:top;">:</td><td><div>443</div></td></tr><tr><td style="font-weight:bold;vertical-align:top;">mod_wsgi.process_group</td><td style="vertical-align:top;">:</td><td><div>web2py</div></td></tr><tr><td style="font-weight:bold;vertical-align:top;">mod_wsgi.queue_start</td><td style="vertical-align:top;">:</td><td><div>1441768504940459</div></td></tr><tr><td style="font-weight:bold;vertical-align:top;">mod_wsgi.request_handler</td><td style="vertical-align:top;">:</td><td><div>wsgi-script</div></td></tr><tr><td style="font-weight:bold;vertical-align:top;">mod_wsgi.script_reloading</td><td style="vertical-align:top;">:</td><td><div>1</div></td></tr><tr><td style="font-weight:bold;vertical-align:top;">mod_wsgi.version</td><td style="vertical-align:top;">:</td><td><div><table><tr><td><div>3</div></td></tr><tr><td><div>4</div></td></tr></table></div></td></tr><tr><td style="font-weight:bold;vertical-align:top;">mod_wsgi_application_group</td><td style="vertical-align:top;">:</td><td><div>127.0.1.1|</div></td></tr><tr><td style="font-weight:bold;vertical-align:top;">mod_wsgi_callable_object</td><td style="vertical-align:top;">:</td><td><div>application</div></td></tr><tr><td style="font-weight:bold;vertical-align:top;">mod_wsgi_enable_sendfile</td><td style="vertical-align:top;">:</td><td><div>0</div></td></tr><tr><td style="font-weight:bold;vertical-align:top;">mod_wsgi_handler_script</td><td style="vertical-align:top;">:</td><td><div></div></td></tr><tr><td style="font-weight:bold;vertical-align:top;">mod_wsgi_input_chunked</td><td style="vertical-align:top;">:</td><td><div>0</div></td></tr><tr><td style="font-weight:bold;vertical-align:top;">mod_wsgi_listener_host</td><td style="vertical-align:top;">:</td><td><div></div></td></tr><tr><td style="font-weight:bold;vertical-align:top;">mod_wsgi_listener_port</td><td style="vertical-align:top;">:</td><td><div>443</div></td></tr><tr><td style="font-weight:bold;vertical-align:top;">mod_wsgi_process_group</td><td style="vertical-align:top;">:</td><td><div>web2py</div></td></tr><tr><td style="font-weight:bold;vertical-align:top;">mod_wsgi_queue_start</td><td style="vertical-align:top;">:</td><td><div>1441768504940459</div></td></tr><tr><td style="font-weight:bold;vertical-align:top;">mod_wsgi_request_handler</td><td style="vertical-align:top;">:</td><td><div>wsgi-script</div></td></tr><tr><td style="font-weight:bold;vertical-align:top;">mod_wsgi_script_reloading</td><td style="vertical-align:top;">:</td><td><div>1</div></td></tr><tr><td style="font-weight:bold;vertical-align:top;">mod_wsgi_version</td><td style="vertical-align:top;">:</td><td><div><table><tr><td><div>3</div></td></tr><tr><td><div>4</div></td></tr></table></div></td></tr><tr><td style="font-weight:bold;vertical-align:top;">path_info</td><td style="vertical-align:top;">:</td><td><div>/init/dashboard/metrics</div></td></tr><tr><td style="font-weight:bold;vertical-align:top;">path_translated</td><td style="vertical-align:top;">:</td><td><div>/home/www-data/web2py/wsgihandler.py/init/dashboard/metrics</div></td></tr><tr><td style="font-weight:bold;vertical-align:top;">query_string</td><td style="vertical-align:top;">:</td><td><div></div></td></tr><tr><td style="font-weight:bold;vertical-align:top;">remote_addr</td><td style="vertical-align:top;">:</td><td><div>192.168.56.1</div></td></tr><tr><td style="font-weight:bold;vertical-align:top;">remote_port</td><td style="vertical-align:top;">:</td><td><div>58130</div></td></tr><tr><td style="font-weight:bold;vertical-align:top;">request_method</td><td style="vertical-align:top;">:</td><td><div>GET</div></td></tr><tr><td style="font-weight:bold;vertical-align:top;">request_scheme</td><td style="vertical-align:top;">:</td><td><div>https</div></td></tr><tr><td style="font-weight:bold;vertical-align:top;">request_uri</td><td style="vertical-align:top;">:</td><td><div>/init/dashboard/metrics</div></td></tr><tr><td style="font-weight:bold;vertical-align:top;">script_filename</td><td style="vertical-align:top;">:</td><td><div>/home/www-data/web2py/wsgihandler.py</div></td></tr><tr><td style="font-weight:bold;vertical-align:top;">script_name</td><td style="vertical-align:top;">:</td><td><div></div></td></tr><tr><td style="font-weight:bold;vertical-align:top;">server_addr</td><td style="vertical-align:top;">:</td><td><div>192.168.56.101</div></td></tr><tr><td style="font-weight:bold;vertical-align:top;">server_admin</td><td style="vertical-align:top;">:</td><td><div>[no address given]</div></td></tr><tr><td style="font-weight:bold;vertical-align:top;">server_name</td><td style="vertical-align:top;">:</td><td><div>devbox</div></td></tr><tr><td style="font-weight:bold;vertical-align:top;">server_port</td><td style="vertical-align:top;">:</td><td><div>443</div></td></tr><tr><td style="font-weight:bold;vertical-align:top;">server_protocol</td><td style="vertical-align:top;">:</td><td><div>HTTP/1.1</div></td></tr><tr><td style="font-weight:bold;vertical-align:top;">server_signature</td><td style="vertical-align:top;">:</td><td><div>&lt;address&gt;Apache/2.4.7 (Ubuntu) Server at devbox Port 443&lt;/address&gt;\n</div></td></tr><tr><td style="font-weight:bold;vertical-align:top;">server_software</td><td style="vertical-align:top;">:</td><td><div>Apache/2.4.7 (Ubuntu)</div></td></tr><tr><td style="font-weight:bold;vertical-align:top;">ssl_tls_sni</td><td style="vertical-align:top;">:</td><td><div>devbox</div></td></tr><tr><td style="font-weight:bold;vertical-align:top;">web2py_path</td><td style="vertical-align:top;">:</td><td><div>/home/www-data/web2py</div></td></tr><tr><td style="font-weight:bold;vertical-align:top;">web2py_version</td><td style="vertical-align:top;">:</td><td><div>2.12.3-stable+timestamp.2015.08.19.00.18.03</div></td></tr><tr><td style="font-weight:bold;vertical-align:top;">wsgi.errors</td><td style="vertical-align:top;">:</td><td><div>&lt;mod_wsgi.Log object at 0x7fb6500318f0&gt;</div></td></tr><tr><td style="font-weight:bold;vertical-align:top;">wsgi.file_wrapper</td><td style="vertical-align:top;">:</td><td><div>&lt;built-in method file_wrapper of mod_wsgi.Adapter object at 0x7fb652717be8&gt;</div></td></tr><tr><td style="font-weight:bold;vertical-align:top;">wsgi.input</td><td style="vertical-align:top;">:</td><td><div>&lt;mod_wsgi.Input object at 0x7fb6500318b0&gt;</div></td></tr><tr><td style="font-weight:bold;vertical-align:top;">wsgi.multiprocess</td><td style="vertical-align:top;">:</td><td><div>False</div></td></tr><tr><td style="font-weight:bold;vertical-align:top;">wsgi.multithread</td><td style="vertical-align:top;">:</td><td><div>True</div></td></tr><tr><td style="font-weight:bold;vertical-align:top;">wsgi.run_once</td><td style="vertical-align:top;">:</td><td><div>False</div></td></tr><tr><td style="font-weight:bold;vertical-align:top;">wsgi.url_scheme</td><td style="vertical-align:top;">:</td><td><div>https</div></td></tr><tr><td style="font-weight:bold;vertical-align:top;">wsgi.version</td><td style="vertical-align:top;">:</td><td><div><table><tr><td><div>1</div></td></tr><tr><td><div>0</div></td></tr></table></div></td></tr><tr><td style="font-weight:bold;vertical-align:top;">wsgi_errors</td><td style="vertical-align:top;">:</td><td><div>&lt;mod_wsgi.Log object at 0x7fb6500318f0&gt;</div></td></tr><tr><td style="font-weight:bold;vertical-align:top;">wsgi_file_wrapper</td><td style="vertical-align:top;">:</td><td><div>&lt;built-in method file_wrapper of mod_wsgi.Adapter object at 0x7fb652717be8&gt;</div></td></tr><tr><td style="font-weight:bold;vertical-align:top;">wsgi_input</td><td style="vertical-align:top;">:</td><td><div>&lt;mod_wsgi.Input object at 0x7fb6500318b0&gt;</div></td></tr><tr><td style="font-weight:bold;vertical-align:top;">wsgi_multiprocess</td><td style="vertical-align:top;">:</td><td><div>False</div></td></tr><tr><td style="font-weight:bold;vertical-align:top;">wsgi_multithread</td><td style="vertical-align:top;">:</td><td><div>True</div></td></tr><tr><td style="font-weight:bold;vertical-align:top;">wsgi_run_once</td><td style="vertical-align:top;">:</td><td><div>False</div></td></tr><tr><td style="font-weight:bold;vertical-align:top;">wsgi_url_scheme</td><td style="vertical-align:top;">:</td><td><div>https</div></td></tr><tr><td style="font-weight:bold;vertical-align:top;">wsgi_version</td><td style="vertical-align:top;">:</td><td><div><table><tr><td><div>1</div></td></tr><tr><td><div>0</div></td></tr></table></div></td></tr></table></div></td></tr><tr><td style="font-weight:bold;vertical-align:top;">extension</td><td style="vertical-align:top;">:</td><td><div>html</div></td></tr><tr><td style="font-weight:bold;vertical-align:top;">folder</td><td style="vertical-align:top;">:</td><td><div>/home/www-data/web2py/applications/init/</div></td></tr><tr><td style="font-weight:bold;vertical-align:top;">function</td><td style="vertical-align:top;">:</td><td><div>metrics</div></td></tr><tr><td style="font-weight:bold;vertical-align:top;">global_settings</td><td style="vertical-align:top;">:</td><td><div><table><tr><td style="font-weight:bold;vertical-align:top;">app_folders</td><td style="vertical-align:top;">:</td><td><div>set([&#x27;/home/www-data/web2py/applications/admin/&#x27;, &#x27;/home/www-data/web2py/applications/init/&#x27;])</div></td></tr><tr><td style="font-weight:bold;vertical-align:top;">applications_parent</td><td style="vertical-align:top;">:</td><td><div>/home/www-data/web2py</div></td></tr><tr><td style="font-weight:bold;vertical-align:top;">db_sessions</td><td style="vertical-align:top;">:</td><td><div>set([])</div></td></tr><tr><td style="font-weight:bold;vertical-align:top;">debugging</td><td style="vertical-align:top;">:</td><td><div>True</div></td></tr><tr><td style="font-weight:bold;vertical-align:top;">gluon_parent</td><td style="vertical-align:top;">:</td><td><div>/home/www-data/web2py</div></td></tr><tr><td style="font-weight:bold;vertical-align:top;">is_jython</td><td style="vertical-align:top;">:</td><td><div>False</div></td></tr><tr><td style="font-weight:bold;vertical-align:top;">is_pypy</td><td style="vertical-align:top;">:</td><td><div>False</div></td></tr><tr><td style="font-weight:bold;vertical-align:top;">is_source</td><td style="vertical-align:top;">:</td><td><div>True</div></td></tr><tr><td style="font-weight:bold;vertical-align:top;">local_hosts</td><td style="vertical-align:top;">:</td><td><div><table><tr><td><div>devbox</div></td></tr><tr><td><div>::1</div></td></tr><tr><td><div>127.0.1.1</div></td></tr><tr><td><div>::ffff:127.0.0.1</div></td></tr><tr><td><div>127.0.0.1</div></td></tr></table></div></td></tr><tr><td style="font-weight:bold;vertical-align:top;">web2py_version</td><td style="vertical-align:top;">:</td><td><div>2.12.3-stable+timestamp.2015.08.19.00.18.03</div></td></tr></table></div></td></tr><tr><td style="font-weight:bold;vertical-align:top;">is_https</td><td style="vertical-align:top;">:</td><td><div>True</div></td></tr><tr><td style="font-weight:bold;vertical-align:top;">is_local</td><td style="vertical-align:top;">:</td><td><div>False</div></td></tr><tr><td style="font-weight:bold;vertical-align:top;">is_restful</td><td style="vertical-align:top;">:</td><td><div>False</div></td></tr><tr><td style="font-weight:bold;vertical-align:top;">is_sheduler</td><td style="vertical-align:top;">:</td><td><div>None</div></td></tr><tr><td style="font-weight:bold;vertical-align:top;">is_shell</td><td style="vertical-align:top;">:</td><td><div>None</div></td></tr><tr><td style="font-weight:bold;vertical-align:top;">now</td><td style="vertical-align:top;">:</td><td><div>datetime.datetime(2015, 9, 8, 20, 15, 4, 943342)</div></td></tr><tr><td style="font-weight:bold;vertical-align:top;">raw_args</td><td style="vertical-align:top;">:</td><td><div></div></td></tr><tr><td style="font-weight:bold;vertical-align:top;">raw_extension</td><td style="vertical-align:top;">:</td><td><div>None</div></td></tr><tr><td style="font-weight:bold;vertical-align:top;">url</td><td style="vertical-align:top;">:</td><td><div>/init/dashboard/metrics</div></td></tr><tr><td style="font-weight:bold;vertical-align:top;">utcnow</td><td style="vertical-align:top;">:</td><td><div>datetime.datetime(2015, 9, 9, 3, 15, 4, 943349)</div></td></tr><tr><td style="font-weight:bold;vertical-align:top;">wsgi</td><td style="vertical-align:top;">:</td><td><div>&lt;gluon.main.LazyWSGI object at 0x7fb650031e10&gt;</div></td></tr></table></div>'
tRp66
sS'frames'
p67
(lp68
(dp69
S'file'
p70
S'/home/www-data/web2py/gluon/restricted.py'
p71
sS'dump'
p72
(dp73
S'environment'
p74
S"{'A': <class 'gluon.html.A'>, 'ANY_OF': <class 'gluon.validators.ANY_OF'>, 'ASSIGNJS': <function ASSIGNJS>, 'AppConfig': <function AppConfig>, 'Auth': <class 'gluon.tools.Auth'>, 'B': <class 'gluon.html.B'>, 'BEAUTIFY': <class 'gluon.html.BEAUTIFY'>, 'BODY': <class 'gluon.html.BODY'>, 'BR': <class 'gluon.html.BR'>, 'BUTTON': <class 'gluon.html.BUTTON'>, ...}"
p75
sS'ccode'
p76
S'<code object <module> at 0x7fb650fae630, file "/...lications/init/controllers/dashboard.py", line 3>'
p77
ssS'lnum'
p78
I227
sS'lines'
p79
(dp80
I224
S'            ccode = code'
p81
sI225
S'        else:'
p82
sI226
S'            ccode = compile2(code, layer)'
p83
sI227
S'        exec ccode in environment'
p84
sI228
S'    except HTTP:'
p85
sI229
S'        raise'
p86
sI230
S'    except RestrictedError:'
p87
sI231
S'        # do not encapsulate (obfuscate) the original RestrictedError'
p88
sI222
S'    try:'
p89
sI223
S'        if isinstance(code, types.CodeType):'
p90
ssS'call'
p91
S"(code='# -*- coding: utf-8 -*-\\n# try something like\\nfro..._count\\n\\nresponse._vars=response._caller(metrics)\\n', environment={'A': <class 'gluon.html.A'>, 'ANY_OF': <class 'gluon.validators.ANY_OF'>, 'ASSIGNJS': <function ASSIGNJS>, 'AppConfig': <function AppConfig>, 'Auth': <class 'gluon.tools.Auth'>, 'B': <class 'gluon.html.B'>, 'BEAUTIFY': <class 'gluon.html.BEAUTIFY'>, 'BODY': <class 'gluon.html.BODY'>, 'BR': <class 'gluon.html.BR'>, 'BUTTON': <class 'gluon.html.BUTTON'>, ...}, layer='/home/www-data/web2py/applications/init/controllers/dashboard.py')"
p92
sS'func'
p93
S'restricted'
p94
sa(dp95
g70
S'/home/www-data/web2py/applications/init/controllers/dashboard.py'
p96
sg72
(dp97
sg78
I121
sg79
(dp98
I110
S'                # this keeps track of the size of the pie chart'
p99
sI111
S'                if len(self.sentiment_raw) >= sys.maxint:'
p100
sI112
S'                        self.sentiment_raw = []'
p101
sI113
S'                        self.sentiment_count = Counter()'
p102
sI114
S'                else:'
p103
sI115
S'                        self.sentiment_raw.extend(sentiment)'
p104
sI116
S'                        self.sentiment_count = Counter( self.sentiment_raw )'
p105
sI117
S'                        self.sentiment_count.most_common()'
p106
sI118
S'        def add(self, sentiment=[]):'
p107
sI119
S'                self.sentiment_count = Counter(sentiment) + self.sentiment_count'
p108
ssg91
S'()'
p109
sg93
S'<module>'
p110
sa(dp111
g70
S'/home/www-data/web2py/gluon/globals.py'
p112
sg72
(dp113
S'self'
p114
S'undefined'
p115
sS'f'
S'<function metrics>'
p116
ssg78
I412
sg79
(dp117
I416
S"        self.generic_patterns = ['*']"
p118
sI407
S"        self.flash = ''            # used by the default view layout"
p119
sI408
S'        self.meta = Storage()      # used by web2py_ajax.html'
p120
sI409
S'        self.menu = []             # used by the default view layout'
p121
sI410
S'        self.files = []            # used by web2py_ajax.html'
p122
sI411
S'        self._vars = None'
p123
sI412
S'        self._caller = lambda f: f()'
p124
sI413
S'        self._view_environment = None'
p125
sI414
S'        self._custom_commit = None'
p126
sI415
S'        self._custom_rollback = None'
p127
ssg91
S'(f=<function metrics>)'
p128
sg93
S'<lambda>'
p129
sa(dp130
g70
S'/home/www-data/web2py/applications/init/controllers/dashboard.py'
p131
sg72
(dp132
S'count'
p133
g115
sS'twitter.get_user_timeline'
p134
S'<bound method Twython.get_user_timeline of <Twython: N9Eu9N9iUX4MSHu8ryq8krrnH>>'
p135
sS'global session'
p136
S"<Storage {'_formkey[default]': ['f3320ff4-2283-4...-e87c-4cac-b90e-015e28cb6150'], '_secure': True}>"
p137
sS'screen_name'
p138
g115
sS'timeline'
p139
g115
sS'twitter'
p140
S'<Twython: N9Eu9N9iUX4MSHu8ryq8krrnH>'
p141
sS'session.SCREENNAME'
p142
S'None'
p143
ssg78
I48
sg79
(dp144
I43
S''
sI44
S''
sI45
S'def metrics():'
p145
sI46
S'    BUBBLE_STATS = bubblestats()'
p146
sI47
S'    twitter = Twython(myglobals.APP_KEY, myglobals.APP_SECRET, session.USER_OAUTH_TOKEN, session.USER_OAUTH_TOKEN_SECRET)'
p147
sI48
S'    timeline = twitter.get_user_timeline(screen_name=session.SCREENNAME, count=500)'
p148
sI49
S'    hashtags = []'
p149
sI50
S'    for data in timeline:'
p150
sI51
S"        hashtags = [ tag['text'].encode('utf-8').lower() for tag in data['entities']['hashtags'] ]"
p151
sI52
S'        BUBBLE_STATS.update( trends=hashtags )'
p152
ssg91
S'()'
p153
sg93
S'metrics'
p154
sa(dp155
g70
S'/usr/local/lib/python2.7/dist-packages/twython/endpoints.py'
p156
sg72
(dp157
S'self.get'
p158
S'<bound method Twython.get of <Twython: N9Eu9N9iUX4MSHu8ryq8krrnH>>'
p159
sS'self'
p160
S'<Twython: N9Eu9N9iUX4MSHu8ryq8krrnH>'
p161
sS'params'
p162
S"{'count': 500, 'screen_name': None}"
p163
ssg78
I42
sg79
(dp164
I37
S'        indicated by the screen_name or user_id parameters.'
p165
sI38
S''
sI39
S'        Docs: https://dev.twitter.com/docs/api/1.1/get/statuses/user_timeline'
p166
sI40
S''
sI41
S'        """'
p167
sI42
S"        return self.get('statuses/user_timeline', params=params)"
p168
sI43
S"    get_user_timeline.iter_mode = 'id'"
p169
sI44
S''
sI45
S'    def get_home_timeline(self, **params):'
p170
sI46
S'        """Returns a collection of the most recent Tweets and retweets'
p171
ssg91
S"(self=<Twython: N9Eu9N9iUX4MSHu8ryq8krrnH>, **params={'count': 500, 'screen_name': None})"
p172
sg93
S'get_user_timeline'
p173
sa(dp174
g70
S'/usr/local/lib/python2.7/dist-packages/twython/api.py'
p175
sg72
(dp176
S'params'
p177
S"{'count': 500, 'screen_name': None}"
p178
sS'self'
p179
S'<Twython: N9Eu9N9iUX4MSHu8ryq8krrnH>'
p180
sS'self.request'
p181
S'<bound method Twython.request of <Twython: N9Eu9N9iUX4MSHu8ryq8krrnH>>'
p182
sS'endpoint'
p183
S"'statuses/user_timeline'"
p184
sS'version'
p185
S"'1.1'"
p186
ssg78
I265
sg79
(dp187
I260
S''
sI261
S'        return content'
p188
sI262
S''
sI263
S"    def get(self, endpoint, params=None, version='1.1'):"
p189
sI264
S'        """Shortcut for GET requests via :class:`request`"""'
p190
sI265
S'        return self.request(endpoint, params=params, version=version)'
p191
sI266
S''
sI267
S"    def post(self, endpoint, params=None, version='1.1'):"
p192
sI268
S'        """Shortcut for POST requests via :class:`request`"""'
p193
sI269
S"        return self.request(endpoint, 'POST', params=params, version=version)"
p194
ssg91
S"(self=<Twython: N9Eu9N9iUX4MSHu8ryq8krrnH>, endpoint='statuses/user_timeline', params={'count': 500, 'screen_name': None}, version='1.1')"
p195
sg93
S'get'
p196
sa(dp197
g70
S'/usr/local/lib/python2.7/dist-packages/twython/api.py'
p198
sg72
(dp199
S'url'
p200
S"'https://api.twitter.com/1.1/statuses/user_timeline.json'"
p201
sS'api_call'
p202
g115
ssg78
I259
sg79
(dp203
I256
S"            url = '%s/%s.json' % (self.api_url % version, endpoint)"
p204
sI257
S''
sI258
S'        content = self._request(url, method=method, params=params,'
p205
sI259
S'                                api_call=url)'
p206
sI260
S''
sI261
S'        return content'
p207
sI262
S''
sI263
S"    def get(self, endpoint, params=None, version='1.1'):"
p208
sI254
S'            url = endpoint'
p209
sI255
S'        else:'
p210
ssg91
S"(self=<Twython: N9Eu9N9iUX4MSHu8ryq8krrnH>, endpoint='statuses/user_timeline', method='GET', params={'count': 500, 'screen_name': None}, version='1.1')"
p211
sg93
g64
sa(dp212
g70
S'/usr/local/lib/python2.7/dist-packages/twython/api.py'
p213
sg72
(dp214
S'response.headers'
p215
S"CaseInsensitiveDict({'content-length': '99', 'x-...content-type': 'application/json;charset=utf-8'})"
p216
sS'response'
p217
S'<Response [401]>'
p218
sS'retry_after'
p219
g115
sS'response.headers.get'
p220
S"<bound method CaseInsensitiveDict.get of CaseIns...ontent-type': 'application/json;charset=utf-8'})>"
p221
ssg78
I198
sg79
(dp222
I193
S'                ExceptionType = TwythonAuthError'
p223
sI194
S''
sI195
S'            raise ExceptionType('
p224
sI196
S'                error_message,'
p225
sI197
S'                error_code=response.status_code,'
p226
sI198
S"                retry_after=response.headers.get('X-Rate-Limit-Reset'))"
p227
sI199
S''
sI200
S'        try:'
p228
sI201
S'            content = response.json()'
p229
sI202
S'        except ValueError:'
p230
ssg91
S"(self=<Twython: N9Eu9N9iUX4MSHu8ryq8krrnH>, url='https://api.twitter.com/1.1/statuses/user_timeline.json', method='get', params={'count': 500}, api_call='https://api.twitter.com/1.1/statuses/user_timeline.json')"
p231
sg93
S'_request'
p232
sasS'pyver'
p233
S'Python 2.7.6: /usr/bin/python (prefix: /usr)'
p234
sS'session'
p235
g65
(S's\x1a\x00\x00\x00<div><table></table></div>'
tRp236
sS'etype'
p237
S"<class 'twython.exceptions.TwythonAuthError'>"
p238
sS'date'
p239
S'Tue Sep  8 20:15:05 2015'
p240
sS'response'
p241
g65
(S'sC \x00\x00<div><table><tr><td style="font-weight:bold;vertical-align:top;">body</td><td style="vertical-align:top;">:</td><td><div>&lt;cStringIO.StringO object at 0x7fb65006e3b0&gt;</div></td></tr><tr><td style="font-weight:bold;vertical-align:top;">cookies</td><td style="vertical-align:top;">:</td><td><div><table><tr><td style="font-weight:bold;vertical-align:top;">session_id_init</td><td style="vertical-align:top;">:</td><td><div>192.168.56.1-8bc0e114-a48c-4586-9442-334a1b860e3b<table><tr><td style="font-weight:bold;vertical-align:top;">comment</td><td style="vertical-align:top;">:</td><td><div></div></td></tr><tr><td style="font-weight:bold;vertical-align:top;">domain</td><td style="vertical-align:top;">:</td><td><div></div></td></tr><tr><td style="font-weight:bold;vertical-align:top;">expires</td><td style="vertical-align:top;">:</td><td><div></div></td></tr><tr><td style="font-weight:bold;vertical-align:top;">httponly</td><td style="vertical-align:top;">:</td><td><div></div></td></tr><tr><td style="font-weight:bold;vertical-align:top;">max-age</td><td style="vertical-align:top;">:</td><td><div></div></td></tr><tr><td style="font-weight:bold;vertical-align:top;">path</td><td style="vertical-align:top;">:</td><td><div>/</div></td></tr><tr><td style="font-weight:bold;vertical-align:top;">secure</td><td style="vertical-align:top;">:</td><td><div></div></td></tr><tr><td style="font-weight:bold;vertical-align:top;">version</td><td style="vertical-align:top;">:</td><td><div></div></td></tr></table></div></td></tr></table></div></td></tr><tr><td style="font-weight:bold;vertical-align:top;">delimiters</td><td style="vertical-align:top;">:</td><td><div><table><tr><td><div>{{</div></td></tr><tr><td><div>}}</div></td></tr></table></div></td></tr><tr><td style="font-weight:bold;vertical-align:top;">files</td><td style="vertical-align:top;">:</td><td><div><table></table></div></td></tr><tr><td style="font-weight:bold;vertical-align:top;">flash</td><td style="vertical-align:top;">:</td><td><div></div></td></tr><tr><td style="font-weight:bold;vertical-align:top;">form_label_separator</td><td style="vertical-align:top;">:</td><td><div></div></td></tr><tr><td style="font-weight:bold;vertical-align:top;">formstyle</td><td style="vertical-align:top;">:</td><td><div>bootstrap3_inline</div></td></tr><tr><td style="font-weight:bold;vertical-align:top;">generic_patterns</td><td style="vertical-align:top;">:</td><td><div><table></table></div></td></tr><tr><td style="font-weight:bold;vertical-align:top;">google_analytics_id</td><td style="vertical-align:top;">:</td><td><div>None</div></td></tr><tr><td style="font-weight:bold;vertical-align:top;">headers</td><td style="vertical-align:top;">:</td><td><div><table><tr><td style="font-weight:bold;vertical-align:top;">X-Powered-By</td><td style="vertical-align:top;">:</td><td><div>web2py</div></td></tr></table></div></td></tr><tr><td style="font-weight:bold;vertical-align:top;">logo</td><td style="vertical-align:top;">:</td><td><div><a class="navbar-brand" href="/" id="web2py-logo"><b>myDash</b></a></div></td></tr><tr><td style="font-weight:bold;vertical-align:top;">menu</td><td style="vertical-align:top;">:</td><td><div><table><tr><td><div><table><tr><td><div>About</div></td></tr><tr><td><div>False</div></td></tr><tr><td><div>/init/about/index</div></td></tr><tr><td><div><table></table></div></td></tr></table></div></td></tr></table></div></td></tr><tr><td style="font-weight:bold;vertical-align:top;">menu1</td><td style="vertical-align:top;">:</td><td><div><table><tr><td><div><table><tr><td><div>Login</div></td></tr><tr><td><div>False</div></td></tr><tr><td><div>#</div></td></tr><tr><td><div><table><tr><td><div><table><tr><td><div>Help</div></td></tr><tr><td><div>False</div></td></tr><tr><td><div>/init/help/index</div></td></tr></table></div></td></tr><tr><td><div><li class="divider"></li></div></td></tr><tr><td><div><table><tr><td><div><i class="glyphicon glyphicon-log-in"></i> Login</div></td></tr><tr><td><div>False</div></td></tr><tr><td><div>/init/default/login</div></td></tr></table></div></td></tr></table></div></td></tr></table></div></td></tr></table></div></td></tr><tr><td style="font-weight:bold;vertical-align:top;">meta</td><td style="vertical-align:top;">:</td><td><div><table><tr><td style="font-weight:bold;vertical-align:top;">author</td><td style="vertical-align:top;">:</td><td><div>Your Name &lt;you@example.com&gt;</div></td></tr><tr><td style="font-weight:bold;vertical-align:top;">description</td><td style="vertical-align:top;">:</td><td><div>a cool new app</div></td></tr><tr><td style="font-weight:bold;vertical-align:top;">generator</td><td style="vertical-align:top;">:</td><td><div>Web2py Web Framework</div></td></tr><tr><td style="font-weight:bold;vertical-align:top;">keywords</td><td style="vertical-align:top;">:</td><td><div>web2py, python, framework</div></td></tr></table></div></td></tr><tr><td style="font-weight:bold;vertical-align:top;">models_to_run</td><td style="vertical-align:top;">:</td><td><div><table><tr><td><div>^\\w+\\.py$</div></td></tr><tr><td><div>^dashboard/\\w+\\.py$</div></td></tr><tr><td><div>^dashboard/metrics/\\w+\\.py$</div></td></tr></table></div></td></tr><tr><td style="font-weight:bold;vertical-align:top;">postprocessing</td><td style="vertical-align:top;">:</td><td><div><table></table></div></td></tr><tr><td style="font-weight:bold;vertical-align:top;">session_client</td><td style="vertical-align:top;">:</td><td><div>192.168.56.1</div></td></tr><tr><td style="font-weight:bold;vertical-align:top;">session_cookie_compression_level</td><td style="vertical-align:top;">:</td><td><div>None</div></td></tr><tr><td style="font-weight:bold;vertical-align:top;">session_cookie_expires</td><td style="vertical-align:top;">:</td><td><div>None</div></td></tr><tr><td style="font-weight:bold;vertical-align:top;">session_cookie_key</td><td style="vertical-align:top;">:</td><td><div>None</div></td></tr><tr><td style="font-weight:bold;vertical-align:top;">session_data_name</td><td style="vertical-align:top;">:</td><td><div>session_data_init</div></td></tr><tr><td style="font-weight:bold;vertical-align:top;">session_file</td><td style="vertical-align:top;">:</td><td><div>&lt;open file &#x27;/home/www-data/web2py/applications/init/sessions/1ea/0f4/192.168.56.1-8bc0e114-a48c-4586-9442-334a1b860e3b&#x27;, mode &#x27;rb+&#x27; at 0x7fb650c291e0&gt;</div></td></tr><tr><td style="font-weight:bold;vertical-align:top;">session_filename</td><td style="vertical-align:top;">:</td><td><div>/home/www-data/web2py/applications/init/sessions/192.168.56.1-8bc0e114-a48c-4586-9442-334a1b860e3b</div></td></tr><tr><td style="font-weight:bold;vertical-align:top;">session_hash</td><td style="vertical-align:top;">:</td><td><div>c8fe63cefa5e55d36d9aa83b5935b3cd</div></td></tr><tr><td style="font-weight:bold;vertical-align:top;">session_id</td><td style="vertical-align:top;">:</td><td><div>192.168.56.1-8bc0e114-a48c-4586-9442-334a1b860e3b</div></td></tr><tr><td style="font-weight:bold;vertical-align:top;">session_id_name</td><td style="vertical-align:top;">:</td><td><div>session_id_init</div></td></tr><tr><td style="font-weight:bold;vertical-align:top;">session_locked</td><td style="vertical-align:top;">:</td><td><div>True</div></td></tr><tr><td style="font-weight:bold;vertical-align:top;">session_masterapp</td><td style="vertical-align:top;">:</td><td><div>init</div></td></tr><tr><td style="font-weight:bold;vertical-align:top;">session_new</td><td style="vertical-align:top;">:</td><td><div>False</div></td></tr><tr><td style="font-weight:bold;vertical-align:top;">session_storage_type</td><td style="vertical-align:top;">:</td><td><div>file</div></td></tr><tr><td style="font-weight:bold;vertical-align:top;">status</td><td style="vertical-align:top;">:</td><td><div>200</div></td></tr><tr><td style="font-weight:bold;vertical-align:top;">subtitle</td><td style="vertical-align:top;">:</td><td><div></div></td></tr><tr><td style="font-weight:bold;vertical-align:top;">title</td><td style="vertical-align:top;">:</td><td><div>Init</div></td></tr><tr><td style="font-weight:bold;vertical-align:top;">view</td><td style="vertical-align:top;">:</td><td><div>dashboard/metrics.html</div></td></tr></table></div>'
tRp242
sS'locals'
p243
(dp244
S'files'
p245
S'{}'
p246
sS'api_call'
p247
S"'https://api.twitter.com/1.1/statuses/user_timeline.json'"
p248
sS'requests_args'
p249
S"{'params': {'count': 500}}"
p250
sS'url'
p251
S"'https://api.twitter.com/1.1/statuses/user_timeline.json'"
p252
sS'self'
p253
S'<Twython: N9Eu9N9iUX4MSHu8ryq8krrnH>'
p254
sS'error_message'
p255
S"'An error occurred processing your request.'"
p256
sS'ExceptionType'
p257
S"<class 'twython.exceptions.TwythonAuthError'>"
p258
sS'method'
p259
S"'get'"
p260
sS'params'
p261
S"{'count': 500}"
p262
sg93
S'<bound method Session.get of <requests.sessions.Session object>>'
p263
sg241
S'<Response [401]>'
p264
sssS'traceback'
p265
S'Traceback (most recent call last):\n  File "/home/www-data/web2py/gluon/restricted.py", line 227, in restricted\n    exec ccode in environment\n  File "/home/www-data/web2py/applications/init/controllers/dashboard.py", line 121, in <module>\n  File "/home/www-data/web2py/gluon/globals.py", line 412, in <lambda>\n    self._caller = lambda f: f()\n  File "/home/www-data/web2py/applications/init/controllers/dashboard.py", line 48, in metrics\n    timeline = twitter.get_user_timeline(screen_name=session.SCREENNAME, count=500)\n  File "/usr/local/lib/python2.7/dist-packages/twython/endpoints.py", line 42, in get_user_timeline\n    return self.get(\'statuses/user_timeline\', params=params)\n  File "/usr/local/lib/python2.7/dist-packages/twython/api.py", line 265, in get\n    return self.request(endpoint, params=params, version=version)\n  File "/usr/local/lib/python2.7/dist-packages/twython/api.py", line 259, in request\n    api_call=url)\n  File "/usr/local/lib/python2.7/dist-packages/twython/api.py", line 198, in _request\n    retry_after=response.headers.get(\'X-Rate-Limit-Reset\'))\nTwythonAuthError: Twitter API returned a 401 (Unauthorized), An error occurred processing your request.\n'
p266
s.