(dp1
S'output'
p2
S"<type 'exceptions.NameError'> global name 'url' is not defined"
p3
sS'layer'
p4
S'/home/www-data/web2py/applications/init/controllers/dashboard.py'
p5
sS'code'
p6
S'# -*- coding: utf-8 -*-\n# try something like\nfrom twython import Twython\nimport os, json\nfrom collections import Counter\n\n\ntry:\n    APP_KEY = os.getenv(\'APP_KEY\')\n    APP_SECRET = os.getenv(\'APP_SECRET\')\n    ACCESS_TOKEN = os.getenv(\'ACCESS_TOKEN\')\n    ACCESS_TOKEN_SECRET = os.getenv(\'ACCESS_TOKEN_SECRET\')\n    APP_URI =json.loads(os.getenv("VCAP_APPLICATION"))[\'uris\'][0]\nexcept:\n    APP_KEY =\'N9Eu9N9iUX4MSHu8ryq8krrnH\'\n    APP_SECRET = \'h5FceeDBpCvDF99FiCyMiaGRefEeZc24pNlyEYG3EAtLNMXEzk\'\n    ACCESS_TOKEN = \'2927712042-kpRDLAz0BEGt9tM6aRZqxdJW5REc1ufLbMTf5Yp\'\n    ACCESS_TOKEN_SECRET = \'wSZqg9lFSadjfMg6tvCbFD25F9HtqGqf8NpL9RfIuDALf\'\n    APP_URI = \'devbox\'\n\n#---------------------------------------------------------------\n#\n# bubblestats: keeps track of the tag count in the bubble chart\n#\n#---------------------------------------------------------------\nclass bubblestats:\n        def __init__(self):\n                self.trend_raw = []\n                self.trend_count = Counter()\n        def update(self, trends=[]):\n                # this keeps track of the size of the bubble chart\n                if len(self.trend_raw) >= 10000:\n                        self.trend_raw = []\n                        self.trend_count = Counter()\n                else:\n                        self.trend_raw.extend(trends)\n                        self.trend_count = Counter( self.trend_raw )\n                        self.trend_count.most_common()\n        def add(self, trends=[]):\n                # this lets the bubble chart grow bigger\n                self.trend_count = Counter(trends) + self.trend_count\n\ndef index():\n    if not session.SCREENNAME:\n        redirect(\'/\')\n    response.title = \'Dashboard\'\n    tweets = []\n    try:\n\n        twitter = Twython(APP_KEY, APP_SECRET, session.USER_OAUTH_TOKEN, session.USER_OAUTH_TOKEN_SECRET)\n        #timeline = twitter.get_home_timeline()\n        timeline = twitter.get_user_timeline(screen_name=session.SCREENNAME, count=200)\n        tweets = [{\'screen_name\':data[\'user\'][\'screen_name\'], \'text\': data[\'text\']} for data in timeline ]\n    except Exception as e:\n            tweets = e\n    return dict(message=("Timeline for @%s (%s)" % (session.SCREENNAME, session.JSON[\'user_id\']) ), timeline=tweets)\n\n\ndef metrics():\n    BUBBLE_STATS = bubblestats()\n    twitter = Twython(APP_KEY, APP_SECRET, session.USER_OAUTH_TOKEN, session.USER_OAUTH_TOKEN_SECRET)\n    timeline = twitter.get_user_timeline(screen_name=session.SCREENNAME, count=200)\n    hashtags = []\n    for data in timeline:\n        h = [ tag[\'text\'].encode(\'utf-8\').lower() for tag in data[\'entities\'][\'hashtags\'] ]\n        hashtags.extend(h)\n    trends = json.dumps({\'trends\': hashtags })\n    BUBBLE_STATS.update( trends=trends )\n    return json.dumps({"name":"hashtags","links":[{"rel":"self","href": url}],"counts": BUBBLE_STATS.trend_count })\n\nresponse._vars=response._caller(metrics)\n'
p7
sS'snapshot'
p8
(dp9
S'exception'
p10
(dp11
S'__hash__'
p12
S"<method-wrapper '__hash__' of exceptions.NameError object>"
p13
sS'__setattr__'
p14
S"<method-wrapper '__setattr__' of exceptions.NameError object>"
p15
sS'__reduce_ex__'
p16
S'<built-in method __reduce_ex__ of exceptions.NameError object>'
p17
sS'__getslice__'
p18
S"<method-wrapper '__getslice__' of exceptions.NameError object>"
p19
sS'__getitem__'
p20
S"<method-wrapper '__getitem__' of exceptions.NameError object>"
p21
sS'__setstate__'
p22
S'<built-in method __setstate__ of exceptions.NameError object>'
p23
sS'args'
p24
S'("global name \'url\' is not defined",)'
p25
sS'__reduce__'
p26
S'<built-in method __reduce__ of exceptions.NameError object>'
p27
sS'__str__'
p28
S"<method-wrapper '__str__' of exceptions.NameError object>"
p29
sS'__format__'
p30
S'<built-in method __format__ of exceptions.NameError object>'
p31
sS'__getattribute__'
p32
S"<method-wrapper '__getattribute__' of exceptions.NameError object>"
p33
sS'__class__'
p34
S"<type 'exceptions.NameError'>"
p35
sS'__unicode__'
p36
S'<built-in method __unicode__ of exceptions.NameError object>'
p37
sS'__delattr__'
p38
S"<method-wrapper '__delattr__' of exceptions.NameError object>"
p39
sS'__subclasshook__'
p40
S'<built-in method __subclasshook__ of type object>'
p41
sS'__repr__'
p42
S"<method-wrapper '__repr__' of exceptions.NameError object>"
p43
sS'__dict__'
p44
S'{}'
p45
sS'__sizeof__'
p46
S'<built-in method __sizeof__ of exceptions.NameError object>'
p47
sS'__doc__'
p48
S"'Name not found globally.'"
p49
sS'__init__'
p50
S"<method-wrapper '__init__' of exceptions.NameError object>"
p51
sS'__new__'
p52
S'<built-in method __new__ of type object>'
p53
ssS'evalue'
p54
S"global name 'url' is not defined"
p55
sS'request'
p56
cgluon.html
XML_unpickle
p57
(S's\xd6}\x00\x00<div><table><tr><td style="font-weight:bold;vertical-align:top;">ajax</td><td style="vertical-align:top;">:</td><td><div>False</div></td></tr><tr><td style="font-weight:bold;vertical-align:top;">application</td><td style="vertical-align:top;">:</td><td><div>init</div></td></tr><tr><td style="font-weight:bold;vertical-align:top;">args</td><td style="vertical-align:top;">:</td><td><div><table></table></div></td></tr><tr><td style="font-weight:bold;vertical-align:top;">cid</td><td style="vertical-align:top;">:</td><td><div>None</div></td></tr><tr><td style="font-weight:bold;vertical-align:top;">client</td><td style="vertical-align:top;">:</td><td><div>192.168.56.1</div></td></tr><tr><td style="font-weight:bold;vertical-align:top;">controller</td><td style="vertical-align:top;">:</td><td><div>dashboard</div></td></tr><tr><td style="font-weight:bold;vertical-align:top;">cookies</td><td style="vertical-align:top;">:</td><td><div><table><tr><td style="font-weight:bold;vertical-align:top;">session_id_admin</td><td style="vertical-align:top;">:</td><td><div>192.168.56.1-d12a00ed-961a-4f3a-a3f4-955dd0f254c5<table><tr><td style="font-weight:bold;vertical-align:top;">comment</td><td style="vertical-align:top;">:</td><td><div></div></td></tr><tr><td style="font-weight:bold;vertical-align:top;">domain</td><td style="vertical-align:top;">:</td><td><div></div></td></tr><tr><td style="font-weight:bold;vertical-align:top;">expires</td><td style="vertical-align:top;">:</td><td><div></div></td></tr><tr><td style="font-weight:bold;vertical-align:top;">httponly</td><td style="vertical-align:top;">:</td><td><div></div></td></tr><tr><td style="font-weight:bold;vertical-align:top;">max-age</td><td style="vertical-align:top;">:</td><td><div></div></td></tr><tr><td style="font-weight:bold;vertical-align:top;">path</td><td style="vertical-align:top;">:</td><td><div></div></td></tr><tr><td style="font-weight:bold;vertical-align:top;">secure</td><td style="vertical-align:top;">:</td><td><div></div></td></tr><tr><td style="font-weight:bold;vertical-align:top;">version</td><td style="vertical-align:top;">:</td><td><div></div></td></tr></table></div></td></tr><tr><td style="font-weight:bold;vertical-align:top;">session_id_hrcexplorer</td><td style="vertical-align:top;">:</td><td><div>192.168.56.1-9b2fefff-e522-4932-b1af-6e0f5be6f0a1<table><tr><td style="font-weight:bold;vertical-align:top;">comment</td><td style="vertical-align:top;">:</td><td><div></div></td></tr><tr><td style="font-weight:bold;vertical-align:top;">domain</td><td style="vertical-align:top;">:</td><td><div></div></td></tr><tr><td style="font-weight:bold;vertical-align:top;">expires</td><td style="vertical-align:top;">:</td><td><div></div></td></tr><tr><td style="font-weight:bold;vertical-align:top;">httponly</td><td style="vertical-align:top;">:</td><td><div></div></td></tr><tr><td style="font-weight:bold;vertical-align:top;">max-age</td><td style="vertical-align:top;">:</td><td><div></div></td></tr><tr><td style="font-weight:bold;vertical-align:top;">path</td><td style="vertical-align:top;">:</td><td><div></div></td></tr><tr><td style="font-weight:bold;vertical-align:top;">secure</td><td style="vertical-align:top;">:</td><td><div></div></td></tr><tr><td style="font-weight:bold;vertical-align:top;">version</td><td style="vertical-align:top;">:</td><td><div></div></td></tr></table></div></td></tr><tr><td style="font-weight:bold;vertical-align:top;">session_id_init</td><td style="vertical-align:top;">:</td><td><div>192.168.56.1-436c2529-9dd2-4929-91fc-ecfde967e890<table><tr><td style="font-weight:bold;vertical-align:top;">comment</td><td style="vertical-align:top;">:</td><td><div></div></td></tr><tr><td style="font-weight:bold;vertical-align:top;">domain</td><td style="vertical-align:top;">:</td><td><div></div></td></tr><tr><td style="font-weight:bold;vertical-align:top;">expires</td><td style="vertical-align:top;">:</td><td><div></div></td></tr><tr><td style="font-weight:bold;vertical-align:top;">httponly</td><td style="vertical-align:top;">:</td><td><div></div></td></tr><tr><td style="font-weight:bold;vertical-align:top;">max-age</td><td style="vertical-align:top;">:</td><td><div></div></td></tr><tr><td style="font-weight:bold;vertical-align:top;">path</td><td style="vertical-align:top;">:</td><td><div></div></td></tr><tr><td style="font-weight:bold;vertical-align:top;">secure</td><td style="vertical-align:top;">:</td><td><div></div></td></tr><tr><td style="font-weight:bold;vertical-align:top;">version</td><td style="vertical-align:top;">:</td><td><div></div></td></tr></table></div></td></tr><tr><td style="font-weight:bold;vertical-align:top;">session_id_jetexplorer</td><td style="vertical-align:top;">:</td><td><div>192.168.56.1-a7a6f093-5af1-4864-a620-0f1451f0c7b6<table><tr><td style="font-weight:bold;vertical-align:top;">comment</td><td style="vertical-align:top;">:</td><td><div></div></td></tr><tr><td style="font-weight:bold;vertical-align:top;">domain</td><td style="vertical-align:top;">:</td><td><div></div></td></tr><tr><td style="font-weight:bold;vertical-align:top;">expires</td><td style="vertical-align:top;">:</td><td><div></div></td></tr><tr><td style="font-weight:bold;vertical-align:top;">httponly</td><td style="vertical-align:top;">:</td><td><div></div></td></tr><tr><td style="font-weight:bold;vertical-align:top;">max-age</td><td style="vertical-align:top;">:</td><td><div></div></td></tr><tr><td style="font-weight:bold;vertical-align:top;">path</td><td style="vertical-align:top;">:</td><td><div></div></td></tr><tr><td style="font-weight:bold;vertical-align:top;">secure</td><td style="vertical-align:top;">:</td><td><div></div></td></tr><tr><td style="font-weight:bold;vertical-align:top;">version</td><td style="vertical-align:top;">:</td><td><div></div></td></tr></table></div></td></tr><tr><td style="font-weight:bold;vertical-align:top;">session_id_lockheed</td><td style="vertical-align:top;">:</td><td><div>192.168.56.1-1b96a350-49cc-46e2-8fe2-1ea03dc887f0<table><tr><td style="font-weight:bold;vertical-align:top;">comment</td><td style="vertical-align:top;">:</td><td><div></div></td></tr><tr><td style="font-weight:bold;vertical-align:top;">domain</td><td style="vertical-align:top;">:</td><td><div></div></td></tr><tr><td style="font-weight:bold;vertical-align:top;">expires</td><td style="vertical-align:top;">:</td><td><div></div></td></tr><tr><td style="font-weight:bold;vertical-align:top;">httponly</td><td style="vertical-align:top;">:</td><td><div></div></td></tr><tr><td style="font-weight:bold;vertical-align:top;">max-age</td><td style="vertical-align:top;">:</td><td><div></div></td></tr><tr><td style="font-weight:bold;vertical-align:top;">path</td><td style="vertical-align:top;">:</td><td><div></div></td></tr><tr><td style="font-weight:bold;vertical-align:top;">secure</td><td style="vertical-align:top;">:</td><td><div></div></td></tr><tr><td style="font-weight:bold;vertical-align:top;">version</td><td style="vertical-align:top;">:</td><td><div></div></td></tr></table></div></td></tr><tr><td style="font-weight:bold;vertical-align:top;">session_id_test</td><td style="vertical-align:top;">:</td><td><div>192.168.56.1-4574d531-8bf7-4b67-88b3-7ef6352d22b5<table><tr><td style="font-weight:bold;vertical-align:top;">comment</td><td style="vertical-align:top;">:</td><td><div></div></td></tr><tr><td style="font-weight:bold;vertical-align:top;">domain</td><td style="vertical-align:top;">:</td><td><div></div></td></tr><tr><td style="font-weight:bold;vertical-align:top;">expires</td><td style="vertical-align:top;">:</td><td><div></div></td></tr><tr><td style="font-weight:bold;vertical-align:top;">httponly</td><td style="vertical-align:top;">:</td><td><div></div></td></tr><tr><td style="font-weight:bold;vertical-align:top;">max-age</td><td style="vertical-align:top;">:</td><td><div></div></td></tr><tr><td style="font-weight:bold;vertical-align:top;">path</td><td style="vertical-align:top;">:</td><td><div></div></td></tr><tr><td style="font-weight:bold;vertical-align:top;">secure</td><td style="vertical-align:top;">:</td><td><div></div></td></tr><tr><td style="font-weight:bold;vertical-align:top;">version</td><td style="vertical-align:top;">:</td><td><div></div></td></tr></table></div></td></tr><tr><td style="font-weight:bold;vertical-align:top;">session_id_welcome</td><td style="vertical-align:top;">:</td><td><div>192.168.56.1-1df545f1-d577-4d48-ae1d-3cc8ff8b001d<table><tr><td style="font-weight:bold;vertical-align:top;">comment</td><td style="vertical-align:top;">:</td><td><div></div></td></tr><tr><td style="font-weight:bold;vertical-align:top;">domain</td><td style="vertical-align:top;">:</td><td><div></div></td></tr><tr><td style="font-weight:bold;vertical-align:top;">expires</td><td style="vertical-align:top;">:</td><td><div></div></td></tr><tr><td style="font-weight:bold;vertical-align:top;">httponly</td><td style="vertical-align:top;">:</td><td><div></div></td></tr><tr><td style="font-weight:bold;vertical-align:top;">max-age</td><td style="vertical-align:top;">:</td><td><div></div></td></tr><tr><td style="font-weight:bold;vertical-align:top;">path</td><td style="vertical-align:top;">:</td><td><div></div></td></tr><tr><td style="font-weight:bold;vertical-align:top;">secure</td><td style="vertical-align:top;">:</td><td><div></div></td></tr><tr><td style="font-weight:bold;vertical-align:top;">version</td><td style="vertical-align:top;">:</td><td><div></div></td></tr></table></div></td></tr></table></div></td></tr><tr><td style="font-weight:bold;vertical-align:top;">env</td><td style="vertical-align:top;">:</td><td><div><table><tr><td style="font-weight:bold;vertical-align:top;">CONTEXT_DOCUMENT_ROOT</td><td style="vertical-align:top;">:</td><td><div>/var/www</div></td></tr><tr><td style="font-weight:bold;vertical-align:top;">CONTEXT_PREFIX</td><td style="vertical-align:top;">:</td><td><div></div></td></tr><tr><td style="font-weight:bold;vertical-align:top;">DOCUMENT_ROOT</td><td style="vertical-align:top;">:</td><td><div>/var/www</div></td></tr><tr><td style="font-weight:bold;vertical-align:top;">GATEWAY_INTERFACE</td><td style="vertical-align:top;">:</td><td><div>CGI/1.1</div></td></tr><tr><td style="font-weight:bold;vertical-align:top;">HTTP_ACCEPT</td><td style="vertical-align:top;">:</td><td><div>text/html,application/xhtml+xml,application/xml;q=0.9,image/webp,*/*;q=0.8</div></td></tr><tr><td style="font-weight:bold;vertical-align:top;">HTTP_ACCEPT_ENCODING</td><td style="vertical-align:top;">:</td><td><div>gzip, deflate, sdch</div></td></tr><tr><td style="font-weight:bold;vertical-align:top;">HTTP_ACCEPT_LANGUAGE</td><td style="vertical-align:top;">:</td><td><div>en-US,en;q=0.8,pl;q=0.6</div></td></tr><tr><td style="font-weight:bold;vertical-align:top;">HTTP_CONNECTION</td><td style="vertical-align:top;">:</td><td><div>keep-alive</div></td></tr><tr><td style="font-weight:bold;vertical-align:top;">HTTP_COOKIE</td><td style="vertical-align:top;">:</td><td><div>session_id_lockheed=192.168.56.1-1b96a350-49cc-46e2-8fe2-1ea03dc887f0; session_id_hrcexplorer=192.168.56.1-9b2fefff-e522-4932-b1af-6e0f5be6f0a1; session_id_jetexplorer=192.168.56.1-a7a6f093-5af1-4864-a620-0f1451f0c7b6; session_id_welcome=192.168.56.1-1df545f1-d577-4d48-ae1d-3cc8ff8b001d; session_id_test=192.168.56.1-4574d531-8bf7-4b67-88b3-7ef6352d22b5; session_id_admin=192.168.56.1-d12a00ed-961a-4f3a-a3f4-955dd0f254c5; session_id_init=192.168.56.1-436c2529-9dd2-4929-91fc-ecfde967e890</div></td></tr><tr><td style="font-weight:bold;vertical-align:top;">HTTP_HOST</td><td style="vertical-align:top;">:</td><td><div>devbox</div></td></tr><tr><td style="font-weight:bold;vertical-align:top;">HTTP_UPGRADE_INSECURE_REQUESTS</td><td style="vertical-align:top;">:</td><td><div>1</div></td></tr><tr><td style="font-weight:bold;vertical-align:top;">HTTP_USER_AGENT</td><td style="vertical-align:top;">:</td><td><div>Mozilla/5.0 (Macintosh; Intel Mac OS X 10_9_5) AppleWebKit/537.36 (KHTML, like Gecko) Chrome/44.0.2403.157 Safari/537.36</div></td></tr><tr><td style="font-weight:bold;vertical-align:top;">PATH_INFO</td><td style="vertical-align:top;">:</td><td><div>/init/dashboard/metrics</div></td></tr><tr><td style="font-weight:bold;vertical-align:top;">PATH_TRANSLATED</td><td style="vertical-align:top;">:</td><td><div>/home/www-data/web2py/wsgihandler.py/init/dashboard/metrics</div></td></tr><tr><td style="font-weight:bold;vertical-align:top;">QUERY_STRING</td><td style="vertical-align:top;">:</td><td><div></div></td></tr><tr><td style="font-weight:bold;vertical-align:top;">REMOTE_ADDR</td><td style="vertical-align:top;">:</td><td><div>192.168.56.1</div></td></tr><tr><td style="font-weight:bold;vertical-align:top;">REMOTE_PORT</td><td style="vertical-align:top;">:</td><td><div>63783</div></td></tr><tr><td style="font-weight:bold;vertical-align:top;">REQUEST_METHOD</td><td style="vertical-align:top;">:</td><td><div>GET</div></td></tr><tr><td style="font-weight:bold;vertical-align:top;">REQUEST_SCHEME</td><td style="vertical-align:top;">:</td><td><div>https</div></td></tr><tr><td style="font-weight:bold;vertical-align:top;">REQUEST_URI</td><td style="vertical-align:top;">:</td><td><div>/init/dashboard/metrics</div></td></tr><tr><td style="font-weight:bold;vertical-align:top;">SCRIPT_FILENAME</td><td style="vertical-align:top;">:</td><td><div>/home/www-data/web2py/wsgihandler.py</div></td></tr><tr><td style="font-weight:bold;vertical-align:top;">SCRIPT_NAME</td><td style="vertical-align:top;">:</td><td><div></div></td></tr><tr><td style="font-weight:bold;vertical-align:top;">SERVER_ADDR</td><td style="vertical-align:top;">:</td><td><div>192.168.56.101</div></td></tr><tr><td style="font-weight:bold;vertical-align:top;">SERVER_ADMIN</td><td style="vertical-align:top;">:</td><td><div>[no address given]</div></td></tr><tr><td style="font-weight:bold;vertical-align:top;">SERVER_NAME</td><td style="vertical-align:top;">:</td><td><div>devbox</div></td></tr><tr><td style="font-weight:bold;vertical-align:top;">SERVER_PORT</td><td style="vertical-align:top;">:</td><td><div>443</div></td></tr><tr><td style="font-weight:bold;vertical-align:top;">SERVER_PROTOCOL</td><td style="vertical-align:top;">:</td><td><div>HTTP/1.1</div></td></tr><tr><td style="font-weight:bold;vertical-align:top;">SERVER_SIGNATURE</td><td style="vertical-align:top;">:</td><td><div>&lt;address&gt;Apache/2.4.7 (Ubuntu) Server at devbox Port 443&lt;/address&gt;\n</div></td></tr><tr><td style="font-weight:bold;vertical-align:top;">SERVER_SOFTWARE</td><td style="vertical-align:top;">:</td><td><div>Apache/2.4.7 (Ubuntu)</div></td></tr><tr><td style="font-weight:bold;vertical-align:top;">SSL_TLS_SNI</td><td style="vertical-align:top;">:</td><td><div>devbox</div></td></tr><tr><td style="font-weight:bold;vertical-align:top;">app_folders</td><td style="vertical-align:top;">:</td><td><div>set([&#x27;/home/www-data/web2py/applications/admin/&#x27;, &#x27;/home/www-data/web2py/applications/init/&#x27;])</div></td></tr><tr><td style="font-weight:bold;vertical-align:top;">applications_parent</td><td style="vertical-align:top;">:</td><td><div>/home/www-data/web2py</div></td></tr><tr><td style="font-weight:bold;vertical-align:top;">context_document_root</td><td style="vertical-align:top;">:</td><td><div>/var/www</div></td></tr><tr><td style="font-weight:bold;vertical-align:top;">context_prefix</td><td style="vertical-align:top;">:</td><td><div></div></td></tr><tr><td style="font-weight:bold;vertical-align:top;">db_sessions</td><td style="vertical-align:top;">:</td><td><div>set([])</div></td></tr><tr><td style="font-weight:bold;vertical-align:top;">debugging</td><td style="vertical-align:top;">:</td><td><div>True</div></td></tr><tr><td style="font-weight:bold;vertical-align:top;">document_root</td><td style="vertical-align:top;">:</td><td><div>/var/www</div></td></tr><tr><td style="font-weight:bold;vertical-align:top;">gateway_interface</td><td style="vertical-align:top;">:</td><td><div>CGI/1.1</div></td></tr><tr><td style="font-weight:bold;vertical-align:top;">gluon_parent</td><td style="vertical-align:top;">:</td><td><div>/home/www-data/web2py</div></td></tr><tr><td style="font-weight:bold;vertical-align:top;">http_accept</td><td style="vertical-align:top;">:</td><td><div>text/html,application/xhtml+xml,application/xml;q=0.9,image/webp,*/*;q=0.8</div></td></tr><tr><td style="font-weight:bold;vertical-align:top;">http_accept_encoding</td><td style="vertical-align:top;">:</td><td><div>gzip, deflate, sdch</div></td></tr><tr><td style="font-weight:bold;vertical-align:top;">http_accept_language</td><td style="vertical-align:top;">:</td><td><div>en-US,en;q=0.8,pl;q=0.6</div></td></tr><tr><td style="font-weight:bold;vertical-align:top;">http_connection</td><td style="vertical-align:top;">:</td><td><div>keep-alive</div></td></tr><tr><td style="font-weight:bold;vertical-align:top;">http_cookie</td><td style="vertical-align:top;">:</td><td><div>session_id_lockheed=192.168.56.1-1b96a350-49cc-46e2-8fe2-1ea03dc887f0; session_id_hrcexplorer=192.168.56.1-9b2fefff-e522-4932-b1af-6e0f5be6f0a1; session_id_jetexplorer=192.168.56.1-a7a6f093-5af1-4864-a620-0f1451f0c7b6; session_id_welcome=192.168.56.1-1df545f1-d577-4d48-ae1d-3cc8ff8b001d; session_id_test=192.168.56.1-4574d531-8bf7-4b67-88b3-7ef6352d22b5; session_id_admin=192.168.56.1-d12a00ed-961a-4f3a-a3f4-955dd0f254c5; session_id_init=192.168.56.1-436c2529-9dd2-4929-91fc-ecfde967e890</div></td></tr><tr><td style="font-weight:bold;vertical-align:top;">http_host</td><td style="vertical-align:top;">:</td><td><div>devbox</div></td></tr><tr><td style="font-weight:bold;vertical-align:top;">http_upgrade_insecure_requests</td><td style="vertical-align:top;">:</td><td><div>1</div></td></tr><tr><td style="font-weight:bold;vertical-align:top;">http_user_agent</td><td style="vertical-align:top;">:</td><td><div>Mozilla/5.0 (Macintosh; Intel Mac OS X 10_9_5) AppleWebKit/537.36 (KHTML, like Gecko) Chrome/44.0.2403.157 Safari/537.36</div></td></tr><tr><td style="font-weight:bold;vertical-align:top;">is_jython</td><td style="vertical-align:top;">:</td><td><div>False</div></td></tr><tr><td style="font-weight:bold;vertical-align:top;">is_pypy</td><td style="vertical-align:top;">:</td><td><div>False</div></td></tr><tr><td style="font-weight:bold;vertical-align:top;">is_source</td><td style="vertical-align:top;">:</td><td><div>True</div></td></tr><tr><td style="font-weight:bold;vertical-align:top;">local_hosts</td><td style="vertical-align:top;">:</td><td><div><table><tr><td><div>devbox</div></td></tr><tr><td><div>::1</div></td></tr><tr><td><div>127.0.1.1</div></td></tr><tr><td><div>::ffff:127.0.0.1</div></td></tr><tr><td><div>127.0.0.1</div></td></tr></table></div></td></tr><tr><td style="font-weight:bold;vertical-align:top;">mod_wsgi.application_group</td><td style="vertical-align:top;">:</td><td><div>127.0.1.1|</div></td></tr><tr><td style="font-weight:bold;vertical-align:top;">mod_wsgi.callable_object</td><td style="vertical-align:top;">:</td><td><div>application</div></td></tr><tr><td style="font-weight:bold;vertical-align:top;">mod_wsgi.enable_sendfile</td><td style="vertical-align:top;">:</td><td><div>0</div></td></tr><tr><td style="font-weight:bold;vertical-align:top;">mod_wsgi.handler_script</td><td style="vertical-align:top;">:</td><td><div></div></td></tr><tr><td style="font-weight:bold;vertical-align:top;">mod_wsgi.input_chunked</td><td style="vertical-align:top;">:</td><td><div>0</div></td></tr><tr><td style="font-weight:bold;vertical-align:top;">mod_wsgi.listener_host</td><td style="vertical-align:top;">:</td><td><div></div></td></tr><tr><td style="font-weight:bold;vertical-align:top;">mod_wsgi.listener_port</td><td style="vertical-align:top;">:</td><td><div>443</div></td></tr><tr><td style="font-weight:bold;vertical-align:top;">mod_wsgi.process_group</td><td style="vertical-align:top;">:</td><td><div>web2py</div></td></tr><tr><td style="font-weight:bold;vertical-align:top;">mod_wsgi.queue_start</td><td style="vertical-align:top;">:</td><td><div>1441311279647885</div></td></tr><tr><td style="font-weight:bold;vertical-align:top;">mod_wsgi.request_handler</td><td style="vertical-align:top;">:</td><td><div>wsgi-script</div></td></tr><tr><td style="font-weight:bold;vertical-align:top;">mod_wsgi.script_reloading</td><td style="vertical-align:top;">:</td><td><div>1</div></td></tr><tr><td style="font-weight:bold;vertical-align:top;">mod_wsgi.version</td><td style="vertical-align:top;">:</td><td><div><table><tr><td><div>3</div></td></tr><tr><td><div>4</div></td></tr></table></div></td></tr><tr><td style="font-weight:bold;vertical-align:top;">mod_wsgi_application_group</td><td style="vertical-align:top;">:</td><td><div>127.0.1.1|</div></td></tr><tr><td style="font-weight:bold;vertical-align:top;">mod_wsgi_callable_object</td><td style="vertical-align:top;">:</td><td><div>application</div></td></tr><tr><td style="font-weight:bold;vertical-align:top;">mod_wsgi_enable_sendfile</td><td style="vertical-align:top;">:</td><td><div>0</div></td></tr><tr><td style="font-weight:bold;vertical-align:top;">mod_wsgi_handler_script</td><td style="vertical-align:top;">:</td><td><div></div></td></tr><tr><td style="font-weight:bold;vertical-align:top;">mod_wsgi_input_chunked</td><td style="vertical-align:top;">:</td><td><div>0</div></td></tr><tr><td style="font-weight:bold;vertical-align:top;">mod_wsgi_listener_host</td><td style="vertical-align:top;">:</td><td><div></div></td></tr><tr><td style="font-weight:bold;vertical-align:top;">mod_wsgi_listener_port</td><td style="vertical-align:top;">:</td><td><div>443</div></td></tr><tr><td style="font-weight:bold;vertical-align:top;">mod_wsgi_process_group</td><td style="vertical-align:top;">:</td><td><div>web2py</div></td></tr><tr><td style="font-weight:bold;vertical-align:top;">mod_wsgi_queue_start</td><td style="vertical-align:top;">:</td><td><div>1441311279647885</div></td></tr><tr><td style="font-weight:bold;vertical-align:top;">mod_wsgi_request_handler</td><td style="vertical-align:top;">:</td><td><div>wsgi-script</div></td></tr><tr><td style="font-weight:bold;vertical-align:top;">mod_wsgi_script_reloading</td><td style="vertical-align:top;">:</td><td><div>1</div></td></tr><tr><td style="font-weight:bold;vertical-align:top;">mod_wsgi_version</td><td style="vertical-align:top;">:</td><td><div><table><tr><td><div>3</div></td></tr><tr><td><div>4</div></td></tr></table></div></td></tr><tr><td style="font-weight:bold;vertical-align:top;">path_info</td><td style="vertical-align:top;">:</td><td><div>/init/dashboard/metrics</div></td></tr><tr><td style="font-weight:bold;vertical-align:top;">path_translated</td><td style="vertical-align:top;">:</td><td><div>/home/www-data/web2py/wsgihandler.py/init/dashboard/metrics</div></td></tr><tr><td style="font-weight:bold;vertical-align:top;">query_string</td><td style="vertical-align:top;">:</td><td><div></div></td></tr><tr><td style="font-weight:bold;vertical-align:top;">remote_addr</td><td style="vertical-align:top;">:</td><td><div>192.168.56.1</div></td></tr><tr><td style="font-weight:bold;vertical-align:top;">remote_port</td><td style="vertical-align:top;">:</td><td><div>63783</div></td></tr><tr><td style="font-weight:bold;vertical-align:top;">request_method</td><td style="vertical-align:top;">:</td><td><div>GET</div></td></tr><tr><td style="font-weight:bold;vertical-align:top;">request_scheme</td><td style="vertical-align:top;">:</td><td><div>https</div></td></tr><tr><td style="font-weight:bold;vertical-align:top;">request_uri</td><td style="vertical-align:top;">:</td><td><div>/init/dashboard/metrics</div></td></tr><tr><td style="font-weight:bold;vertical-align:top;">script_filename</td><td style="vertical-align:top;">:</td><td><div>/home/www-data/web2py/wsgihandler.py</div></td></tr><tr><td style="font-weight:bold;vertical-align:top;">script_name</td><td style="vertical-align:top;">:</td><td><div></div></td></tr><tr><td style="font-weight:bold;vertical-align:top;">server_addr</td><td style="vertical-align:top;">:</td><td><div>192.168.56.101</div></td></tr><tr><td style="font-weight:bold;vertical-align:top;">server_admin</td><td style="vertical-align:top;">:</td><td><div>[no address given]</div></td></tr><tr><td style="font-weight:bold;vertical-align:top;">server_name</td><td style="vertical-align:top;">:</td><td><div>devbox</div></td></tr><tr><td style="font-weight:bold;vertical-align:top;">server_port</td><td style="vertical-align:top;">:</td><td><div>443</div></td></tr><tr><td style="font-weight:bold;vertical-align:top;">server_protocol</td><td style="vertical-align:top;">:</td><td><div>HTTP/1.1</div></td></tr><tr><td style="font-weight:bold;vertical-align:top;">server_signature</td><td style="vertical-align:top;">:</td><td><div>&lt;address&gt;Apache/2.4.7 (Ubuntu) Server at devbox Port 443&lt;/address&gt;\n</div></td></tr><tr><td style="font-weight:bold;vertical-align:top;">server_software</td><td style="vertical-align:top;">:</td><td><div>Apache/2.4.7 (Ubuntu)</div></td></tr><tr><td style="font-weight:bold;vertical-align:top;">ssl_tls_sni</td><td style="vertical-align:top;">:</td><td><div>devbox</div></td></tr><tr><td style="font-weight:bold;vertical-align:top;">web2py_path</td><td style="vertical-align:top;">:</td><td><div>/home/www-data/web2py</div></td></tr><tr><td style="font-weight:bold;vertical-align:top;">web2py_version</td><td style="vertical-align:top;">:</td><td><div>2.12.3-stable+timestamp.2015.08.19.00.18.03</div></td></tr><tr><td style="font-weight:bold;vertical-align:top;">wsgi.errors</td><td style="vertical-align:top;">:</td><td><div>&lt;mod_wsgi.Log object at 0x7f91f1bf2070&gt;</div></td></tr><tr><td style="font-weight:bold;vertical-align:top;">wsgi.file_wrapper</td><td style="vertical-align:top;">:</td><td><div>&lt;built-in method file_wrapper of mod_wsgi.Adapter object at 0x7f91f1c627b0&gt;</div></td></tr><tr><td style="font-weight:bold;vertical-align:top;">wsgi.input</td><td style="vertical-align:top;">:</td><td><div>&lt;mod_wsgi.Input object at 0x7f91f1bf2b70&gt;</div></td></tr><tr><td style="font-weight:bold;vertical-align:top;">wsgi.multiprocess</td><td style="vertical-align:top;">:</td><td><div>False</div></td></tr><tr><td style="font-weight:bold;vertical-align:top;">wsgi.multithread</td><td style="vertical-align:top;">:</td><td><div>True</div></td></tr><tr><td style="font-weight:bold;vertical-align:top;">wsgi.run_once</td><td style="vertical-align:top;">:</td><td><div>False</div></td></tr><tr><td style="font-weight:bold;vertical-align:top;">wsgi.url_scheme</td><td style="vertical-align:top;">:</td><td><div>https</div></td></tr><tr><td style="font-weight:bold;vertical-align:top;">wsgi.version</td><td style="vertical-align:top;">:</td><td><div><table><tr><td><div>1</div></td></tr><tr><td><div>0</div></td></tr></table></div></td></tr><tr><td style="font-weight:bold;vertical-align:top;">wsgi_errors</td><td style="vertical-align:top;">:</td><td><div>&lt;mod_wsgi.Log object at 0x7f91f1bf2070&gt;</div></td></tr><tr><td style="font-weight:bold;vertical-align:top;">wsgi_file_wrapper</td><td style="vertical-align:top;">:</td><td><div>&lt;built-in method file_wrapper of mod_wsgi.Adapter object at 0x7f91f1c627b0&gt;</div></td></tr><tr><td style="font-weight:bold;vertical-align:top;">wsgi_input</td><td style="vertical-align:top;">:</td><td><div>&lt;mod_wsgi.Input object at 0x7f91f1bf2b70&gt;</div></td></tr><tr><td style="font-weight:bold;vertical-align:top;">wsgi_multiprocess</td><td style="vertical-align:top;">:</td><td><div>False</div></td></tr><tr><td style="font-weight:bold;vertical-align:top;">wsgi_multithread</td><td style="vertical-align:top;">:</td><td><div>True</div></td></tr><tr><td style="font-weight:bold;vertical-align:top;">wsgi_run_once</td><td style="vertical-align:top;">:</td><td><div>False</div></td></tr><tr><td style="font-weight:bold;vertical-align:top;">wsgi_url_scheme</td><td style="vertical-align:top;">:</td><td><div>https</div></td></tr><tr><td style="font-weight:bold;vertical-align:top;">wsgi_version</td><td style="vertical-align:top;">:</td><td><div><table><tr><td><div>1</div></td></tr><tr><td><div>0</div></td></tr></table></div></td></tr></table></div></td></tr><tr><td style="font-weight:bold;vertical-align:top;">extension</td><td style="vertical-align:top;">:</td><td><div>html</div></td></tr><tr><td style="font-weight:bold;vertical-align:top;">folder</td><td style="vertical-align:top;">:</td><td><div>/home/www-data/web2py/applications/init/</div></td></tr><tr><td style="font-weight:bold;vertical-align:top;">function</td><td style="vertical-align:top;">:</td><td><div>metrics</div></td></tr><tr><td style="font-weight:bold;vertical-align:top;">global_settings</td><td style="vertical-align:top;">:</td><td><div><table><tr><td style="font-weight:bold;vertical-align:top;">app_folders</td><td style="vertical-align:top;">:</td><td><div>set([&#x27;/home/www-data/web2py/applications/admin/&#x27;, &#x27;/home/www-data/web2py/applications/init/&#x27;])</div></td></tr><tr><td style="font-weight:bold;vertical-align:top;">applications_parent</td><td style="vertical-align:top;">:</td><td><div>/home/www-data/web2py</div></td></tr><tr><td style="font-weight:bold;vertical-align:top;">db_sessions</td><td style="vertical-align:top;">:</td><td><div>set([])</div></td></tr><tr><td style="font-weight:bold;vertical-align:top;">debugging</td><td style="vertical-align:top;">:</td><td><div>True</div></td></tr><tr><td style="font-weight:bold;vertical-align:top;">gluon_parent</td><td style="vertical-align:top;">:</td><td><div>/home/www-data/web2py</div></td></tr><tr><td style="font-weight:bold;vertical-align:top;">is_jython</td><td style="vertical-align:top;">:</td><td><div>False</div></td></tr><tr><td style="font-weight:bold;vertical-align:top;">is_pypy</td><td style="vertical-align:top;">:</td><td><div>False</div></td></tr><tr><td style="font-weight:bold;vertical-align:top;">is_source</td><td style="vertical-align:top;">:</td><td><div>True</div></td></tr><tr><td style="font-weight:bold;vertical-align:top;">local_hosts</td><td style="vertical-align:top;">:</td><td><div><table><tr><td><div>devbox</div></td></tr><tr><td><div>::1</div></td></tr><tr><td><div>127.0.1.1</div></td></tr><tr><td><div>::ffff:127.0.0.1</div></td></tr><tr><td><div>127.0.0.1</div></td></tr></table></div></td></tr><tr><td style="font-weight:bold;vertical-align:top;">web2py_version</td><td style="vertical-align:top;">:</td><td><div>2.12.3-stable+timestamp.2015.08.19.00.18.03</div></td></tr></table></div></td></tr><tr><td style="font-weight:bold;vertical-align:top;">is_https</td><td style="vertical-align:top;">:</td><td><div>True</div></td></tr><tr><td style="font-weight:bold;vertical-align:top;">is_local</td><td style="vertical-align:top;">:</td><td><div>False</div></td></tr><tr><td style="font-weight:bold;vertical-align:top;">is_restful</td><td style="vertical-align:top;">:</td><td><div>False</div></td></tr><tr><td style="font-weight:bold;vertical-align:top;">is_sheduler</td><td style="vertical-align:top;">:</td><td><div>None</div></td></tr><tr><td style="font-weight:bold;vertical-align:top;">is_shell</td><td style="vertical-align:top;">:</td><td><div>None</div></td></tr><tr><td style="font-weight:bold;vertical-align:top;">now</td><td style="vertical-align:top;">:</td><td><div>datetime.datetime(2015, 9, 3, 13, 14, 39, 648241)</div></td></tr><tr><td style="font-weight:bold;vertical-align:top;">raw_args</td><td style="vertical-align:top;">:</td><td><div></div></td></tr><tr><td style="font-weight:bold;vertical-align:top;">raw_extension</td><td style="vertical-align:top;">:</td><td><div>None</div></td></tr><tr><td style="font-weight:bold;vertical-align:top;">url</td><td style="vertical-align:top;">:</td><td><div>/init/dashboard/metrics</div></td></tr><tr><td style="font-weight:bold;vertical-align:top;">utcnow</td><td style="vertical-align:top;">:</td><td><div>datetime.datetime(2015, 9, 3, 20, 14, 39, 648257)</div></td></tr><tr><td style="font-weight:bold;vertical-align:top;">wsgi</td><td style="vertical-align:top;">:</td><td><div>&lt;gluon.main.LazyWSGI object at 0x7f91f1bf2850&gt;</div></td></tr></table></div>'
tRp58
sS'frames'
p59
(lp60
(dp61
S'file'
p62
S'/home/www-data/web2py/gluon/restricted.py'
p63
sS'dump'
p64
(dp65
S'environment'
p66
S"{'A': <class 'gluon.html.A'>, 'ACCESS_TOKEN': '2927712042-kpRDLAz0BEGt9tM6aRZqxdJW5REc1ufLbMTf5Yp', 'ACCESS_TOKEN_SECRET': 'wSZqg9lFSadjfMg6tvCbFD25F9HtqGqf8NpL9RfIuDALf', 'ANY_OF': <class 'gluon.validators.ANY_OF'>, 'APP_KEY': 'N9Eu9N9iUX4MSHu8ryq8krrnH', 'APP_SECRET': 'h5FceeDBpCvDF99FiCyMiaGRefEeZc24pNlyEYG3EAtLNMXEzk', 'APP_URI': 'devbox', 'ASSIGNJS': <function ASSIGNJS>, 'AppConfig': <function AppConfig>, 'Auth': <class 'gluon.tools.Auth'>, ...}"
p67
sS'ccode'
p68
S'<code object <module> at 0x7f91f1dfdab0, file "/...lications/init/controllers/dashboard.py", line 3>'
p69
ssS'lnum'
p70
I227
sS'lines'
p71
(dp72
I224
S'            ccode = code'
p73
sI225
S'        else:'
p74
sI226
S'            ccode = compile2(code, layer)'
p75
sI227
S'        exec ccode in environment'
p76
sI228
S'    except HTTP:'
p77
sI229
S'        raise'
p78
sI230
S'    except RestrictedError:'
p79
sI231
S'        # do not encapsulate (obfuscate) the original RestrictedError'
p80
sI222
S'    try:'
p81
sI223
S'        if isinstance(code, types.CodeType):'
p82
ssS'call'
p83
S"(code='# -*- coding: utf-8 -*-\\n# try something like\\nfro...unt })\\n\\nresponse._vars=response._caller(metrics)\\n', environment={'A': <class 'gluon.html.A'>, 'ACCESS_TOKEN': '2927712042-kpRDLAz0BEGt9tM6aRZqxdJW5REc1ufLbMTf5Yp', 'ACCESS_TOKEN_SECRET': 'wSZqg9lFSadjfMg6tvCbFD25F9HtqGqf8NpL9RfIuDALf', 'ANY_OF': <class 'gluon.validators.ANY_OF'>, 'APP_KEY': 'N9Eu9N9iUX4MSHu8ryq8krrnH', 'APP_SECRET': 'h5FceeDBpCvDF99FiCyMiaGRefEeZc24pNlyEYG3EAtLNMXEzk', 'APP_URI': 'devbox', 'ASSIGNJS': <function ASSIGNJS>, 'AppConfig': <function AppConfig>, 'Auth': <class 'gluon.tools.Auth'>, ...}, layer='/home/www-data/web2py/applications/init/controllers/dashboard.py')"
p84
sS'func'
p85
S'restricted'
p86
sa(dp87
g62
S'/home/www-data/web2py/applications/init/controllers/dashboard.py'
p88
sg64
(dp89
sg70
I71
sg71
(dp90
I64
S'    for data in timeline:'
p91
sI65
S"        h = [ tag['text'].encode('utf-8').lower() for tag in data['entities']['hashtags'] ]"
p92
sI66
S'        hashtags.extend(h)'
p93
sI67
S"    trends = json.dumps({'trends': hashtags })"
p94
sI68
S'    BUBBLE_STATS.update( trends=trends )'
p95
sI69
S'    return json.dumps({"name":"hashtags","links":[{"rel":"self","href": url}],"counts": BUBBLE_STATS.trend_count })'
p96
sI60
S'    BUBBLE_STATS = bubblestats()'
p97
sI61
S'    twitter = Twython(APP_KEY, APP_SECRET, session.USER_OAUTH_TOKEN, session.USER_OAUTH_TOKEN_SECRET)'
p98
sI62
S'    timeline = twitter.get_user_timeline(screen_name=session.SCREENNAME, count=200)'
p99
sI63
S'    hashtags = []'
p100
ssg83
S'()'
p101
sg85
S'<module>'
p102
sa(dp103
g62
S'/home/www-data/web2py/gluon/globals.py'
p104
sg64
(dp105
S'self'
p106
S'undefined'
p107
sS'f'
S'<function metrics>'
p108
ssg70
I412
sg71
(dp109
I416
S"        self.generic_patterns = ['*']"
p110
sI407
S"        self.flash = ''            # used by the default view layout"
p111
sI408
S'        self.meta = Storage()      # used by web2py_ajax.html'
p112
sI409
S'        self.menu = []             # used by the default view layout'
p113
sI410
S'        self.files = []            # used by web2py_ajax.html'
p114
sI411
S'        self._vars = None'
p115
sI412
S'        self._caller = lambda f: f()'
p116
sI413
S'        self._view_environment = None'
p117
sI414
S'        self._custom_commit = None'
p118
sI415
S'        self._custom_rollback = None'
p119
ssg83
S'(f=<function metrics>)'
p120
sg85
S'<lambda>'
p121
sa(dp122
g62
S'/home/www-data/web2py/applications/init/controllers/dashboard.py'
p123
sg64
(dp124
S'url'
p125
g107
sS'global json'
p126
S"<module 'json' from '/usr/lib/python2.7/json/__init__.pyc'>"
p127
sS'json.dumps'
p128
S'<function dumps>'
p129
sS'BUBBLE_STATS.trend_count'
p130
S'Counter({\'"\': 666, \' \': 332, \',\': 331, \'a\': 229,... \'6\': 1, \':\': 1, \'[\': 1, \']\': 1, \'{\': 1, \'}\': 1})'
p131
sS'BUBBLE_STATS'
p132
S'<__restricted__.bubblestats instance>'
p133
ssg70
I69
sg71
(dp134
I64
S'    for data in timeline:'
p135
sI65
S"        h = [ tag['text'].encode('utf-8').lower() for tag in data['entities']['hashtags'] ]"
p136
sI66
S'        hashtags.extend(h)'
p137
sI67
S"    trends = json.dumps({'trends': hashtags })"
p138
sI68
S'    BUBBLE_STATS.update( trends=trends )'
p139
sI69
S'    return json.dumps({"name":"hashtags","links":[{"rel":"self","href": url}],"counts": BUBBLE_STATS.trend_count })'
p140
sI60
S'    BUBBLE_STATS = bubblestats()'
p141
sI61
S'    twitter = Twython(APP_KEY, APP_SECRET, session.USER_OAUTH_TOKEN, session.USER_OAUTH_TOKEN_SECRET)'
p142
sI62
S'    timeline = twitter.get_user_timeline(screen_name=session.SCREENNAME, count=200)'
p143
sI63
S'    hashtags = []'
p144
ssg83
S'()'
p145
sg85
S'metrics'
p146
sasS'pyver'
p147
S'Python 2.7.6: /usr/bin/python (prefix: /usr)'
p148
sS'session'
p149
g57
(S's\xfb\x06\x00\x00<div><table><tr><td style="font-weight:bold;vertical-align:top;">JSON</td><td style="vertical-align:top;">:</td><td><div><table><tr><td style="font-weight:bold;vertical-align:top;">oauth_token</td><td style="vertical-align:top;">:</td><td><div>2927712042-kpRDLAz0BEGt9tM6aRZqxdJW5REc1ufLbMTf5Yp</div></td></tr><tr><td style="font-weight:bold;vertical-align:top;">oauth_token_secret</td><td style="vertical-align:top;">:</td><td><div>wSZqg9lFSadjfMg6tvCbFD25F9HtqGqf8NpL9RfIuDALf</div></td></tr><tr><td style="font-weight:bold;vertical-align:top;">screen_name</td><td style="vertical-align:top;">:</td><td><div>P3Geek</div></td></tr><tr><td style="font-weight:bold;vertical-align:top;">user_id</td><td style="vertical-align:top;">:</td><td><div>2927712042</div></td></tr><tr><td style="font-weight:bold;vertical-align:top;">x_auth_expires</td><td style="vertical-align:top;">:</td><td><div>0</div></td></tr></table></div></td></tr><tr><td style="font-weight:bold;vertical-align:top;">OAUTH_TOKEN</td><td style="vertical-align:top;">:</td><td><div>lZBQmwAAAAAAhUchAAABT5S58Js</div></td></tr><tr><td style="font-weight:bold;vertical-align:top;">OAUTH_TOKEN_SECRET</td><td style="vertical-align:top;">:</td><td><div>KEywIDiISehSltH8eWmpPTZWIgAXnAiD</div></td></tr><tr><td style="font-weight:bold;vertical-align:top;">SCREENNAME</td><td style="vertical-align:top;">:</td><td><div>P3Geek</div></td></tr><tr><td style="font-weight:bold;vertical-align:top;">USER_OAUTH_TOKEN</td><td style="vertical-align:top;">:</td><td><div>2927712042-kpRDLAz0BEGt9tM6aRZqxdJW5REc1ufLbMTf5Yp</div></td></tr><tr><td style="font-weight:bold;vertical-align:top;">USER_OAUTH_TOKEN_SECRET</td><td style="vertical-align:top;">:</td><td><div>wSZqg9lFSadjfMg6tvCbFD25F9HtqGqf8NpL9RfIuDALf</div></td></tr></table></div>'
tRp150
sS'etype'
p151
S"<type 'exceptions.NameError'>"
p152
sS'date'
p153
S'Thu Sep  3 13:14:40 2015'
p154
sS'response'
p155
g57
(S'sd#\x00\x00<div><table><tr><td style="font-weight:bold;vertical-align:top;">body</td><td style="vertical-align:top;">:</td><td><div>&lt;cStringIO.StringO object at 0x7f91f1e26a78&gt;</div></td></tr><tr><td style="font-weight:bold;vertical-align:top;">cookies</td><td style="vertical-align:top;">:</td><td><div><table><tr><td style="font-weight:bold;vertical-align:top;">session_id_init</td><td style="vertical-align:top;">:</td><td><div>192.168.56.1-436c2529-9dd2-4929-91fc-ecfde967e890<table><tr><td style="font-weight:bold;vertical-align:top;">comment</td><td style="vertical-align:top;">:</td><td><div></div></td></tr><tr><td style="font-weight:bold;vertical-align:top;">domain</td><td style="vertical-align:top;">:</td><td><div></div></td></tr><tr><td style="font-weight:bold;vertical-align:top;">expires</td><td style="vertical-align:top;">:</td><td><div></div></td></tr><tr><td style="font-weight:bold;vertical-align:top;">httponly</td><td style="vertical-align:top;">:</td><td><div></div></td></tr><tr><td style="font-weight:bold;vertical-align:top;">max-age</td><td style="vertical-align:top;">:</td><td><div></div></td></tr><tr><td style="font-weight:bold;vertical-align:top;">path</td><td style="vertical-align:top;">:</td><td><div>/</div></td></tr><tr><td style="font-weight:bold;vertical-align:top;">secure</td><td style="vertical-align:top;">:</td><td><div></div></td></tr><tr><td style="font-weight:bold;vertical-align:top;">version</td><td style="vertical-align:top;">:</td><td><div></div></td></tr></table></div></td></tr></table></div></td></tr><tr><td style="font-weight:bold;vertical-align:top;">delimiters</td><td style="vertical-align:top;">:</td><td><div><table><tr><td><div>{{</div></td></tr><tr><td><div>}}</div></td></tr></table></div></td></tr><tr><td style="font-weight:bold;vertical-align:top;">files</td><td style="vertical-align:top;">:</td><td><div><table></table></div></td></tr><tr><td style="font-weight:bold;vertical-align:top;">flash</td><td style="vertical-align:top;">:</td><td><div></div></td></tr><tr><td style="font-weight:bold;vertical-align:top;">form_label_separator</td><td style="vertical-align:top;">:</td><td><div></div></td></tr><tr><td style="font-weight:bold;vertical-align:top;">formstyle</td><td style="vertical-align:top;">:</td><td><div>bootstrap3_inline</div></td></tr><tr><td style="font-weight:bold;vertical-align:top;">generic_patterns</td><td style="vertical-align:top;">:</td><td><div><table></table></div></td></tr><tr><td style="font-weight:bold;vertical-align:top;">google_analytics_id</td><td style="vertical-align:top;">:</td><td><div>None</div></td></tr><tr><td style="font-weight:bold;vertical-align:top;">headers</td><td style="vertical-align:top;">:</td><td><div><table><tr><td style="font-weight:bold;vertical-align:top;">X-Powered-By</td><td style="vertical-align:top;">:</td><td><div>web2py</div></td></tr></table></div></td></tr><tr><td style="font-weight:bold;vertical-align:top;">logo</td><td style="vertical-align:top;">:</td><td><div><a class="navbar-brand" href="/" id="web2py-logo"><b>myDash</b></a></div></td></tr><tr><td style="font-weight:bold;vertical-align:top;">menu</td><td style="vertical-align:top;">:</td><td><div><table><tr><td><div><table><tr><td><div><i class="glyphicon glyphicon-home"></i> Home</div></td></tr><tr><td><div>False</div></td></tr><tr><td><div>/init/default/index</div></td></tr></table></div></td></tr><tr><td><div><table><tr><td><div><i class="glyphicon glyphicon-fire"></i> Trends</div></td></tr><tr><td><div>False</div></td></tr><tr><td><div>/init/trends/index</div></td></tr></table></div></td></tr><tr><td><div><table><tr><td><div><i class="glyphicon glyphicon-thumbs-up"></i> Recommended</div></td></tr><tr><td><div>False</div></td></tr><tr><td><div>/init/recommended/index</div></td></tr></table></div></td></tr></table></div></td></tr><tr><td style="font-weight:bold;vertical-align:top;">menu1</td><td style="vertical-align:top;">:</td><td><div><table><tr><td><div><table><tr><td><div>P3Geek</div></td></tr><tr><td><div>False</div></td></tr><tr><td><div>#</div></td></tr><tr><td><div><table><tr><td><div><table><tr><td><div>About</div></td></tr><tr><td><div>False</div></td></tr><tr><td><div>/init/about/index</div></td></tr></table></div></td></tr><tr><td><div><li class="divider"></li></div></td></tr><tr><td><div><table><tr><td><div>Profile</div></td></tr><tr><td><div>False</div></td></tr><tr><td><div>/init/profile/index</div></td></tr></table></div></td></tr><tr><td><div><table><tr><td><div>Settings</div></td></tr><tr><td><div>False</div></td></tr><tr><td><div>/init/settings/index</div></td></tr></table></div></td></tr><tr><td><div><li class="divider"></li></div></td></tr><tr><td><div><table><tr><td><div><i class="glyphicon glyphicon-log-out"></i> Logout</div></td></tr><tr><td><div>False</div></td></tr><tr><td><div>/init/default/logout</div></td></tr></table></div></td></tr></table></div></td></tr></table></div></td></tr></table></div></td></tr><tr><td style="font-weight:bold;vertical-align:top;">meta</td><td style="vertical-align:top;">:</td><td><div><table><tr><td style="font-weight:bold;vertical-align:top;">author</td><td style="vertical-align:top;">:</td><td><div>Your Name &lt;you@example.com&gt;</div></td></tr><tr><td style="font-weight:bold;vertical-align:top;">description</td><td style="vertical-align:top;">:</td><td><div>a cool new app</div></td></tr><tr><td style="font-weight:bold;vertical-align:top;">generator</td><td style="vertical-align:top;">:</td><td><div>Web2py Web Framework</div></td></tr><tr><td style="font-weight:bold;vertical-align:top;">keywords</td><td style="vertical-align:top;">:</td><td><div>web2py, python, framework</div></td></tr></table></div></td></tr><tr><td style="font-weight:bold;vertical-align:top;">models_to_run</td><td style="vertical-align:top;">:</td><td><div><table><tr><td><div>^\\w+\\.py$</div></td></tr><tr><td><div>^dashboard/\\w+\\.py$</div></td></tr><tr><td><div>^dashboard/metrics/\\w+\\.py$</div></td></tr></table></div></td></tr><tr><td style="font-weight:bold;vertical-align:top;">postprocessing</td><td style="vertical-align:top;">:</td><td><div><table></table></div></td></tr><tr><td style="font-weight:bold;vertical-align:top;">session_client</td><td style="vertical-align:top;">:</td><td><div>192.168.56.1</div></td></tr><tr><td style="font-weight:bold;vertical-align:top;">session_cookie_compression_level</td><td style="vertical-align:top;">:</td><td><div>None</div></td></tr><tr><td style="font-weight:bold;vertical-align:top;">session_cookie_expires</td><td style="vertical-align:top;">:</td><td><div>None</div></td></tr><tr><td style="font-weight:bold;vertical-align:top;">session_cookie_key</td><td style="vertical-align:top;">:</td><td><div>None</div></td></tr><tr><td style="font-weight:bold;vertical-align:top;">session_data_name</td><td style="vertical-align:top;">:</td><td><div>session_data_init</div></td></tr><tr><td style="font-weight:bold;vertical-align:top;">session_file</td><td style="vertical-align:top;">:</td><td><div>&lt;open file &#x27;/home/www-data/web2py/applications/init/sessions/1ff/12e/192.168.56.1-436c2529-9dd2-4929-91fc-ecfde967e890&#x27;, mode &#x27;rb+&#x27; at 0x7f91f19b39c0&gt;</div></td></tr><tr><td style="font-weight:bold;vertical-align:top;">session_filename</td><td style="vertical-align:top;">:</td><td><div>/home/www-data/web2py/applications/init/sessions/192.168.56.1-436c2529-9dd2-4929-91fc-ecfde967e890</div></td></tr><tr><td style="font-weight:bold;vertical-align:top;">session_hash</td><td style="vertical-align:top;">:</td><td><div>7ad52e3a46d7159ed49c4a8e8a7b1d6c</div></td></tr><tr><td style="font-weight:bold;vertical-align:top;">session_id</td><td style="vertical-align:top;">:</td><td><div>192.168.56.1-436c2529-9dd2-4929-91fc-ecfde967e890</div></td></tr><tr><td style="font-weight:bold;vertical-align:top;">session_id_name</td><td style="vertical-align:top;">:</td><td><div>session_id_init</div></td></tr><tr><td style="font-weight:bold;vertical-align:top;">session_locked</td><td style="vertical-align:top;">:</td><td><div>True</div></td></tr><tr><td style="font-weight:bold;vertical-align:top;">session_masterapp</td><td style="vertical-align:top;">:</td><td><div>init</div></td></tr><tr><td style="font-weight:bold;vertical-align:top;">session_new</td><td style="vertical-align:top;">:</td><td><div>False</div></td></tr><tr><td style="font-weight:bold;vertical-align:top;">session_storage_type</td><td style="vertical-align:top;">:</td><td><div>file</div></td></tr><tr><td style="font-weight:bold;vertical-align:top;">status</td><td style="vertical-align:top;">:</td><td><div>200</div></td></tr><tr><td style="font-weight:bold;vertical-align:top;">subtitle</td><td style="vertical-align:top;">:</td><td><div></div></td></tr><tr><td style="font-weight:bold;vertical-align:top;">title</td><td style="vertical-align:top;">:</td><td><div>Init</div></td></tr><tr><td style="font-weight:bold;vertical-align:top;">view</td><td style="vertical-align:top;">:</td><td><div>dashboard/metrics.html</div></td></tr></table></div>'
tRp156
sS'locals'
p157
(dp158
S'h'
S"['python', 'code', 'coding']"
p159
sS'twitter'
p160
S'<Twython: N9Eu9N9iUX4MSHu8ryq8krrnH>'
p161
sS'hashtags'
p162
S"['cloudfoundry', 'cloudfoundry', 'ibmcloud', 'iaas', 'saas', 'cloudnative', 'pivotalcf', 'iot', 'cloud', 'bigdata', 'cloudfoundry', 'vmworld', 'pivotalmoment', 'microservices', 'yaas', 'pivotal', 'cloudfoundry', 'vmworld', 'cloudnative', 'vmworld', ...]"
p163
sS'trends'
p164
S'\'{"trends": ["cloudfoundry", "cloudfoundry", "ibm...", "jobs", "python", "python", "code", "coding"]}\''
p165
sS'tag'
p166
S"{u'indices': [96, 103], u'text': u'coding'}"
p167
sS'BUBBLE_STATS'
p168
S'<__restricted__.bubblestats instance>'
p169
sS'timeline'
p170
S"[{u'contributors': None, u'coordinates': None, u'created_at': u'Thu Sep 03 19:46:54 +0000 2015', u'entities': {u'hashtags': [{u'indices': [92, 105], u'text': u'cloudfoundry'}], u'symbols': [], u'urls': [], u'user_mentions': [{u'id': 16402798, u'id_str': u'16402798', u'indices': [3, 17], u'name': u'SpringCentral', u'screen_name': u'springcentral'}, {u'id': 48158548, u'id_str': u'48158548', u'indices': [45, 58], u'name': u'SpringOne 2GX 2015', u'screen_name': u'springone2gx'}, {u'id': 36093693, u'id_str': u'36093693', u'indices': [118, 131], u'name': u'James Watters', u'screen_name': u'wattersjames'}]}, u'favorite_count': 0, u'favorited': False, u'geo': None, u'id': 639524990401028098, u'id_str': u'639524990401028098', u'in_reply_to_screen_name': None, ...}, {u'contributors': None, u'coordinates': None, u'created_at': u'Thu Sep 03 19:29:30 +0000 2015', u'entities': {u'hashtags': [{u'indices': [29, 42], u'text': u'cloudfoundry'}, {u'indices': [71, 80], u'text': u'IBMCloud'}, {u'indices': [95, 100], u'text': u'IaaS'}, {u'indices': [108, 113], u'text': u'SaaS'}], u'symbols': [], u'urls': [{u'display_url': u'ibm.co/1Mw8nKf', u'expanded_url': u'http://ibm.co/1Mw8nKf', u'indices': [146, 147], u'url': u'http://t.co/x9TwQNd6qr'}], u'user_mentions': [{u'id': 18697326, u'id_str': u'18697326', u'indices': [3, 16], u'name': u'Cloud Foundry', u'screen_name': u'cloudfoundry'}, {u'id': 201846344, u'id_str': u'201846344', u'indices': [50, 59], u'name': u'IBM Cloud', u'screen_name': u'IBMcloud'}]}, u'favorite_count': 0, u'favorited': False, u'geo': None, u'id': 639520612352946176, u'id_str': u'639520612352946176', u'in_reply_to_screen_name': None, ...}, {u'contributors': None, u'coordinates': None, u'created_at': u'Thu Sep 03 17:24:19 +0000 2015', u'entities': {u'hashtags': [], u'symbols': [], u'urls': [{u'display_url': u'twitter.com/pivotal/status\\u2026', u'expanded_url': u'https://twitter.com/pivotal/status/639151693486100480', u'indices': [33, 56], u'url': u'https://t.co/VocXdNu2ls'}], u'user_mentions': [{u'id': 222186902, u'id_str': u'222186902', u'indices': [3, 12], u'name': u'Kamala Dasika', u'screen_name': u'dasikakn'}, {u'id': 1132876218, u'id_str': u'1132876218', u'indices': [16, 24], u'name': u'Pivotal', u'screen_name': u'pivotal'}]}, u'favorite_count': 0, u'favorited': False, u'geo': None, u'id': 639489109627678721, u'id_str': u'639489109627678721', u'in_reply_to_screen_name': None, ...}, {u'contributors': None, u'coordinates': None, u'created_at': u'Thu Sep 03 15:17:28 +0000 2015', u'entities': {u'hashtags': [{u'indices': [32, 44], u'text': u'CloudNative'}], u'media': [{u'display_url': u'pic.twitter.com/d1VyJiRaxT', u'expanded_url': u'http://twitter.com/dave_dyas/status/639447063764332544/photo/1', u'id': 639447063617478656, u'id_str': u'639447063617478656', u'indices': [121, 140], u'media_url': u'http://pbs.twimg.com/media/CN_Ft2eWIAAbrBW.png', u'media_url_https': u'https://pbs.twimg.com/media/CN_Ft2eWIAAbrBW.png', u'sizes': {u'large': {...}, u'medium': {...}, u'small': {...}, u'thumb': {...}}, u'source_status_id': 639447063764332544, u'source_status_id_str': u'639447063764332544', ...}], u'symbols': [], u'urls': [{u'display_url': u'bit.ly/1NPfKjH', u'expanded_url': u'http://bit.ly/1NPfKjH', u'indices': [98, 120], u'url': u'http://t.co/L74WMttu9I'}], u'user_mentions': [{u'id': 323382508, u'id_str': u'323382508', u'indices': [3, 13], u'name': u'Dave Dyas', u'screen_name': u'dave_dyas'}, {u'id': 1265625780, u'id_str': u'1265625780', u'indices': [55, 65], u'name': u'PivotalCloudFoundry', u'screen_name': u'pivotalcf'}, {u'id': 44182242, u'id_str': u'44182242', u'indices': [85, 97], u'name': u'CenturyLink', u'screen_name': u'CenturyLink'}]}, u'extended_entities': {u'media': [{u'display_url': u'pic.twitter.com/d1VyJiRaxT', u'expanded_url': u'http://twitter.com/dave_dyas/status/639447063764332544/photo/1', u'id': 639447063617478656, u'id_str': u'639447063617478656', u'indices': [121, 140], u'media_url': u'http://pbs.twimg.com/media/CN_Ft2eWIAAbrBW.png', u'media_url_https': u'https://pbs.twimg.com/media/CN_Ft2eWIAAbrBW.png', u'sizes': {u'large': {...}, u'medium': {...}, u'small': {...}, u'thumb': {...}}, u'source_status_id': 639447063764332544, u'source_status_id_str': u'639447063764332544', ...}]}, u'favorite_count': 0, u'favorited': False, u'geo': None, u'id': 639457187853692928, u'id_str': u'639457187853692928', ...}, {u'contributors': None, u'coordinates': None, u'created_at': u'Thu Sep 03 15:14:59 +0000 2015', u'entities': {u'hashtags': [{u'indices': [75, 85], u'text': u'PivotalCF'}], u'media': [{u'display_url': u'pic.twitter.com/MIGn5dFHuq', u'expanded_url': u'http://twitter.com/CtlSaito/status/639449260598104064/photo/1', u'id': 639449260250038272, u'id_str': u'639449260250038272', u'indices': [109, 131], u'media_url': u'http://pbs.twimg.com/media/CN_HttkXAAAxFoy.png', u'media_url_https': u'https://pbs.twimg.com/media/CN_HttkXAAAxFoy.png', u'sizes': {u'large': {...}, u'medium': {...}, u'small': {...}, u'thumb': {...}}, u'source_status_id': 639449260598104064, u'source_status_id_str': u'639449260598104064', ...}], u'symbols': [], u'urls': [{u'display_url': u'bit.ly/1NPdGs7', u'expanded_url': u'http://bit.ly/1NPdGs7', u'indices': [86, 108], u'url': u'http://t.co/62Pdl0iwvp'}], u'user_mentions': [{u'id': 3405137962, u'id_str': u'3405137962', u'indices': [3, 12], u'name': u'TakuyaSaito.CTL', u'screen_name': u'CtlSaito'}, {u'id': 44182242, u'id_str': u'44182242', u'indices': [15, 27], u'name': u'CenturyLink', u'screen_name': u'CenturyLink'}, {u'id': 249497487, u'id_str': u'249497487', u'indices': [61, 68], u'name': u'AppFog', u'screen_name': u'appfog'}]}, u'extended_entities': {u'media': [{u'display_url': u'pic.twitter.com/MIGn5dFHuq', u'expanded_url': u'http://twitter.com/CtlSaito/status/639449260598104064/photo/1', u'id': 639449260250038272, u'id_str': u'639449260250038272', u'indices': [109, 131], u'media_url': u'http://pbs.twimg.com/media/CN_HttkXAAAxFoy.png', u'media_url_https': u'https://pbs.twimg.com/media/CN_HttkXAAAxFoy.png', u'sizes': {u'large': {...}, u'medium': {...}, u'small': {...}, u'thumb': {...}}, u'source_status_id': 639449260598104064, u'source_status_id_str': u'639449260598104064', ...}]}, u'favorite_count': 0, u'favorited': False, u'geo': None, u'id': 639456561501442048, u'id_str': u'639456561501442048', ...}, {u'contributors': None, u'coordinates': None, u'created_at': u'Thu Sep 03 12:34:28 +0000 2015', u'entities': {u'hashtags': [{u'indices': [25, 29], u'text': u'IoT'}, {u'indices': [31, 37], u'text': u'cloud'}, {u'indices': [42, 50], u'text': u'BigData'}], u'symbols': [], u'urls': [{u'display_url': u'ibm.co/1JwaRbq', u'expanded_url': u'http://ibm.co/1JwaRbq', u'indices': [87, 109], u'url': u'http://t.co/pXjyrOdstw'}], u'user_mentions': [{u'id': 201846344, u'id_str': u'201846344', u'indices': [3, 12], u'name': u'IBM Cloud', u'screen_name': u'IBMcloud'}]}, u'favorite_count': 0, u'favorited': False, u'geo': None, u'id': 639416166335840256, u'id_str': u'639416166335840256', u'in_reply_to_screen_name': None, ...}, {u'contributors': None, u'coordinates': None, u'created_at': u'Thu Sep 03 11:12:26 +0000 2015', u'entities': {u'hashtags': [], u'symbols': [], u'urls': [{u'display_url': u'start.spring.io', u'expanded_url': u'http://start.spring.io', u'indices': [26, 48], u'url': u'http://t.co/Isn5mkYdQU'}], u'user_mentions': [{u'id': 4324751, u'id_str': u'4324751', u'indices': [3, 14], u'name': u'Josh Long (\\u9f99\\u4e4b\\u6625)', u'screen_name': u'starbuxman'}, {u'id': 1719831672, u'id_str': u'1719831672', u'indices': [63, 74], u'name': u'Spring Boot', u'screen_name': u'springboot'}, {u'id': 3071668556, u'id_str': u'3071668556', u'indices': [92, 107], u'name': u'Spring Cloud OSS', u'screen_name': u'SpringCloudOSS'}]}, u'favorite_count': 0, u'favorited': True, u'geo': None, u'id': 639395520989925376, u'id_str': u'639395520989925376', u'in_reply_to_screen_name': None, ...}, {u'contributors': None, u'coordinates': None, u'created_at': u'Thu Sep 03 07:41:53 +0000 2015', u'entities': {u'hashtags': [], u'symbols': [], u'urls': [{u'display_url': u'twitter.com/pivotal/status\\u2026', u'expanded_url': u'https://twitter.com/pivotal/status/639175301868613632', u'indices': [109, 132], u'url': u'https://t.co/xf1HIKYgpJ'}], u'user_mentions': [{u'id': 518824398, u'id_str': u'518824398', u'indices': [3, 17], u'name': u'Alex Luttschyn', u'screen_name': u'AlexLuttschyn'}, {u'id': 1132876218, u'id_str': u'1132876218', u'indices': [86, 94], u'name': u'Pivotal', u'screen_name': u'pivotal'}, {u'id': 19097512, u'id_str': u'19097512', u'indices': [95, 107], u'name': u'Pivotal Labs', u'screen_name': u'pivotallabs'}]}, u'favorite_count': 0, u'favorited': False, u'geo': None, u'id': 639342533580095488, u'id_str': u'639342533580095488', u'in_reply_to_screen_name': None, ...}, {u'contributors': None, u'coordinates': None, u'created_at': u'Wed Sep 02 22:46:47 +0000 2015', u'entities': {u'hashtags': [], u'media': [{u'display_url': u'pic.twitter.com/45hJnTbdc5', u'expanded_url': u'http://twitter.com/jctbmwi8/status/639205429076094977/photo/1', u'id': 639205418535809024, u'id_str': u'639205418535809024', u'indices': [139, 140], u'media_url': u'http://pbs.twimg.com/media/CN7p8QZU8AAuXJp.jpg', u'media_url_https': u'https://pbs.twimg.com/media/CN7p8QZU8AAuXJp.jpg', u'sizes': {u'large': {...}, u'medium': {...}, u'small': {...}, u'thumb': {...}}, u'source_status_id': 639205429076094977, u'source_status_id_str': u'639205429076094977', ...}], u'symbols': [], u'urls': [], u'user_mentions': [{u'id': 3314573976, u'id_str': u'3314573976', u'indices': [3, 12], u'name': u'James Taylor', u'screen_name': u'jctbmwi8'}, {u'id': 1132876218, u'id_str': u'1132876218', u'indices': [39, 47], u'name': u'Pivotal', u'screen_name': u'pivotal'}, {u'id': 1265625780, u'id_str': u'1265625780', u'indices': [48, 58], u'name': u'PivotalCloudFoundry', u'screen_name': u'pivotalcf'}, {u'id': 19097512, u'id_str': u'19097512', u'indices': [59, 71], u'name': u'Pivotal Labs', u'screen_name': u'pivotallabs'}, {u'id': 36093693, u'id_str': u'36093693', u'indices': [72, 85], u'name': u'James Watters', u'screen_name': u'wattersjames'}, {u'id': 2360527512, u'id_str': u'2360527512', u'indices': [86, 101], u'name': u'Andrew Forbes', u'screen_name': u'AjforbesAndrew'}, {u'id': 89587925, u'id_str': u'89587925', u'indices': [102, 110], u'name': u'Comcast', u'screen_name': u'comcast'}]}, u'extended_entities': {u'media': [{u'display_url': u'pic.twitter.com/45hJnTbdc5', u'expanded_url': u'http://twitter.com/jctbmwi8/status/639205429076094977/photo/1', u'id': 639205418535809024, u'id_str': u'639205418535809024', u'indices': [139, 140], u'media_url': u'http://pbs.twimg.com/media/CN7p8QZU8AAuXJp.jpg', u'media_url_https': u'https://pbs.twimg.com/media/CN7p8QZU8AAuXJp.jpg', u'sizes': {u'large': {...}, u'medium': {...}, u'small': {...}, u'thumb': {...}}, u'source_status_id': 639205429076094977, u'source_status_id_str': u'639205429076094977', ...}]}, u'favorite_count': 0, u'favorited': False, u'geo': None, u'id': 639207874913300480, u'id_str': u'639207874913300480', ...}, {u'contributors': None, u'coordinates': None, u'created_at': u'Wed Sep 02 21:25:45 +0000 2015', u'entities': {u'hashtags': [], u'symbols': [], u'urls': [{u'display_url': u'github.com/cloudfoundry/c\\u2026', u'expanded_url': u'https://github.com/cloudfoundry/cc-api-v3-style-guide', u'indices': [119, 140], u'url': u'https://t.co/9UQ9xDfC9S'}], u'user_mentions': [{u'id': 36093693, u'id_str': u'36093693', u'indices': [3, 16], u'name': u'James Watters', u'screen_name': u'wattersjames'}, {u'id': 18697326, u'id_str': u'18697326', u'indices': [77, 90], u'name': u'Cloud Foundry', u'screen_name': u'cloudfoundry'}]}, u'favorite_count': 0, u'favorited': False, u'geo': None, u'id': 639187479300599808, u'id_str': u'639187479300599808', u'in_reply_to_screen_name': None, ...}, {u'contributors': None, u'coordinates': None, u'created_at': u'Wed Sep 02 19:57:35 +0000 2015', u'entities': {u'hashtags': [{u'indices': [79, 92], u'text': u'cloudfoundry'}], u'symbols': [], u'urls': [{u'display_url': u'cloudfoundry.org/biarca-ceo-kri\\u2026', u'expanded_url': u'https://www.cloudfoundry.org/biarca-ceo-kris-rajana-joining-cloud-foundry/', u'indices': [112, 135], u'url': u'https://t.co/J9w6MtZxOq'}], u'user_mentions': [{u'id': 2883436960, u'id_str': u'2883436960', u'indices': [3, 19], u'name': u'Cloud Foundry.org', u'screen_name': u'cloudfoundryorg'}, {u'id': 384531789, u'id_str': u'384531789', u'indices': [34, 45], u'name': u'Kris Rajana', u'screen_name': u'KrisRajana'}]}, u'favorite_count': 0, u'favorited': False, u'geo': None, u'id': 639165294217461760, u'id_str': u'639165294217461760', u'in_reply_to_screen_name': None, ...}, {u'contributors': None, u'coordinates': None, u'created_at': u'Wed Sep 02 19:45:05 +0000 2015', u'entities': {u'hashtags': [], u'symbols': [], u'urls': [{u'display_url': u'bit.ly/1UnFDLL', u'expanded_url': u'http://bit.ly/1UnFDLL', u'indices': [79, 101], u'url': u'http://t.co/urOJfOy0Is'}], u'user_mentions': [{u'id': 53953, u'id_str': u'53953', u'indices': [3, 8], u'name': u'Cot\\xe9', u'screen_name': u'cote'}, {u'id': 1265625780, u'id_str': u'1265625780', u'indices': [35, 45], u'name': u'PivotalCloudFoundry', u'screen_name': u'pivotalcf'}, {u'id': 30252339, u'id_str': u'30252339', u'indices': [68, 78], u'name': u'Cornelia Davis', u'screen_name': u'cdavisafc'}]}, u'favorite_count': 0, u'favorited': False, u'geo': None, u'id': 639162145335308288, u'id_str': u'639162145335308288', u'in_reply_to_screen_name': None, ...}, {u'contributors': None, u'coordinates': None, u'created_at': u'Wed Sep 02 19:19:00 +0000 2015', u'entities': {u'hashtags': [{u'indices': [109, 117], u'text': u'VMworld'}, {u'indices': [118, 132], u'text': u'pivotalmoment'}], u'media': [{u'display_url': u'pic.twitter.com/XKEPBuDuzU', u'expanded_url': u'http://twitter.com/pivotal/status/639151693486100480/photo/1', u'id': 639151693087666177, u'id_str': u'639151693087666177', u'indices': [143, 144], u'media_url': u'http://pbs.twimg.com/media/CN65FBgUcAE0W0g.png', u'media_url_https': u'https://pbs.twimg.com/media/CN65FBgUcAE0W0g.png', u'sizes': {u'large': {...}, u'medium': {...}, u'small': {...}, u'thumb': {...}}, u'source_status_id': 639151693486100480, u'source_status_id_str': u'639151693486100480', ...}], u'symbols': [], u'urls': [{u'display_url': u'bit.ly/1iirw9n', u'expanded_url': u'http://bit.ly/1iirw9n', u'indices': [86, 108], u'url': u'http://t.co/Azj3IeebVX'}], u'user_mentions': [{u'id': 1132876218, u'id_str': u'1132876218', u'indices': [3, 11], u'name': u'Pivotal', u'screen_name': u'pivotal'}, {u'id': 18697326, u'id_str': u'18697326', u'indices': [61, 74], u'name': u'Cloud Foundry', u'screen_name': u'cloudfoundry'}]}, u'extended_entities': {u'media': [{u'display_url': u'pic.twitter.com/XKEPBuDuzU', u'expanded_url': u'http://twitter.com/pivotal/status/639151693486100480/photo/1', u'id': 639151693087666177, u'id_str': u'639151693087666177', u'indices': [143, 144], u'media_url': u'http://pbs.twimg.com/media/CN65FBgUcAE0W0g.png', u'media_url_https': u'https://pbs.twimg.com/media/CN65FBgUcAE0W0g.png', u'sizes': {u'large': {...}, u'medium': {...}, u'small': {...}, u'thumb': {...}}, u'source_status_id': 639151693486100480, u'source_status_id_str': u'639151693486100480', ...}]}, u'favorite_count': 0, u'favorited': False, u'geo': None, u'id': 639155584214921216, u'id_str': u'639155584214921216', ...}, {u'contributors': None, u'coordinates': None, u'created_at': u'Wed Sep 02 17:22:21 +0000 2015', u'entities': {u'hashtags': [{u'indices': [117, 131], u'text': u'microservices'}], u'symbols': [], u'urls': [{u'display_url': u'bit.ly/1ihuyus', u'expanded_url': u'http://bit.ly/1ihuyus', u'indices': [94, 116], u'url': u'http://t.co/PxjBrMII8H'}], u'user_mentions': [{u'id': 534020399, u'id_str': u'534020399', u'indices': [3, 16], u'name': u'Sufyaan Kazi', u'screen_name': u'Sufyaan_Kazi'}, {u'id': 1719831672, u'id_str': u'1719831672', u'indices': [132, 140], u'name': u'Spring Boot', u'screen_name': u'springboot'}, {u'id': 3198159054, u'id_str': u'3198159054', u'indices': [139, 140], u'name': u'Cloud Native', u'screen_name': u'CloudN8ive'}]}, u'favorite_count': 0, u'favorited': False, u'geo': None, u'id': 639126226121191424, u'id_str': u'639126226121191424', u'in_reply_to_screen_name': None, ...}, {u'contributors': None, u'coordinates': None, u'created_at': u'Wed Sep 02 16:11:03 +0000 2015', u'entities': {u'hashtags': [{u'indices': [14, 19], u'text': u'yaas'}], u'symbols': [], u'urls': [{u'display_url': u'twitter.com/trigods/status\\u2026', u'expanded_url': u'https://twitter.com/trigods/status/638484434145161218', u'indices': [68, 91], u'url': u'https://t.co/56XnaCn4oH'}], u'user_mentions': [{u'id': 166994150, u'id_str': u'166994150', u'indices': [3, 12], u'name': u'Ren\\xe9 Welches', u'screen_name': u'rwelches'}, {u'id': 18697326, u'id_str': u'18697326', u'indices': [53, 66], u'name': u'Cloud Foundry', u'screen_name': u'cloudfoundry'}]}, u'favorite_count': 0, u'favorited': False, u'geo': None, u'id': 639108281823326208, u'id_str': u'639108281823326208', u'in_reply_to_screen_name': None, ...}, {u'contributors': None, u'coordinates': None, u'created_at': u'Wed Sep 02 16:09:27 +0000 2015', u'entities': {u'hashtags': [], u'symbols': [], u'urls': [{u'display_url': u'buff.ly/1NWSJui', u'expanded_url': u'http://buff.ly/1NWSJui', u'indices': [126, 140], u'url': u'http://t.co/IyoEG7tZye'}], u'user_mentions': [{u'id': 730633566, u'id_str': u'730633566', u'indices': [3, 10], u'name': u'R Arni', u'screen_name': u'r_arni'}, {u'id': 18697326, u'id_str': u'18697326', u'indices': [54, 67], u'name': u'Cloud Foundry', u'screen_name': u'cloudfoundry'}]}, u'favorite_count': 0, u'favorited': False, u'geo': None, u'id': 639107881086898176, u'id_str': u'639107881086898176', u'in_reply_to_screen_name': None, ...}, {u'contributors': None, u'coordinates': None, u'created_at': u'Wed Sep 02 13:08:49 +0000 2015', u'entities': {u'hashtags': [{u'indices': [70, 78], u'text': u'pivotal'}], u'symbols': [], u'urls': [{u'display_url': u'ift.tt/1UmANhO', u'expanded_url': u'http://ift.tt/1UmANhO', u'indices': [47, 69], u'url': u'http://t.co/Q2VnAJLGfe'}], u'user_mentions': []}, u'favorite_count': 0, u'favorited': False, u'geo': None, u'id': 639062421009768448, u'id_str': u'639062421009768448', u'in_reply_to_screen_name': None, ...}, {u'contributors': None, u'coordinates': None, u'created_at': u'Wed Sep 02 12:48:32 +0000 2015', u'entities': {u'hashtags': [{u'indices': [139, 140], u'text': u'CloudFoundry'}], u'symbols': [], u'urls': [], u'user_mentions': [{u'id': 52091080, u'id_str': u'52091080', u'indices': [3, 15], u'name': u'Bobby Patrick', u'screen_name': u'bpatrick001'}, {u'id': 17159092, u'id_str': u'17159092', u'indices': [33, 45], u'name': u'ActiveState', u'screen_name': u'ActiveState'}, {u'id': 364477412, u'id_str': u'364477412', u'indices': [122, 133], u'name': u'Capital One', u'screen_name': u'CapitalOne'}, {u'id': 112966410, u'id_str': u'112966410', u'indices': [134, 140], u'name': u'Dirk Rossmann GmbH', u'screen_name': u'rossmann'}]}, u'favorite_count': 0, u'favorited': False, u'geo': None, u'id': 639057317133164548, u'id_str': u'639057317133164548', u'in_reply_to_screen_name': None, ...}, {u'contributors': None, u'coordinates': None, u'created_at': u'Tue Sep 01 22:10:49 +0000 2015', u'entities': {u'hashtags': [], u'symbols': [], u'urls': [{u'display_url': u'cloudfoundry.org/please-join-us\\u2026', u'expanded_url': u'https://www.cloudfoundry.org/please-join-us-for-the-first-ever-cloud-foundry-doc-sprint/', u'indices': [105, 128], u'url': u'https://t.co/4fBkUTVYVy'}], u'user_mentions': [{u'id': 8692942, u'id_str': u'8692942', u'indices': [3, 12], u'name': u'Stormy', u'screen_name': u'storming'}, {u'id': 18697326, u'id_str': u'18697326', u'indices': [36, 49], u'name': u'Cloud Foundry', u'screen_name': u'cloudfoundry'}]}, u'favorite_count': 0, u'favorited': False, u'geo': None, u'id': 638836433533308928, u'id_str': u'638836433533308928', u'in_reply_to_screen_name': None, ...}, {u'contributors': None, u'coordinates': None, u'created_at': u'Tue Sep 01 20:53:43 +0000 2015', u'entities': {u'hashtags': [], u'symbols': [], u'urls': [{u'display_url': u'slideshare.net/littleidea/dev\\u2026', u'expanded_url': u'http://www.slideshare.net/littleidea/devops-platforms-and-devops-platforms', u'indices': [76, 98], u'url': u'http://t.co/wBhCDkvU9b'}], u'user_mentions': [{u'id': 730633566, u'id_str': u'730633566', u'indices': [3, 10], u'name': u'R Arni', u'screen_name': u'r_arni'}, {u'id': 18697326, u'id_str': u'18697326', u'indices': [12, 25], u'name': u'Cloud Foundry', u'screen_name': u'cloudfoundry'}, {u'id': 14079705, u'id_str': u'14079705', u'indices': [26, 37], u'name': u'Andrew Clay Shafer', u'screen_name': u'littleidea'}]}, u'favorite_count': 0, u'favorited': False, u'geo': None, u'id': 638817032922787840, u'id_str': u'638817032922787840', u'in_reply_to_screen_name': None, ...}, ...]"
p171
sS'data'
p172
S"{u'contributors': None, u'coordinates': None, u'created_at': u'Sat Aug 22 18:10:28 +0000 2015', u'entities': {u'hashtags': [{u'indices': [82, 89], u'text': u'python'}, {u'indices': [90, 95], u'text': u'code'}, {u'indices': [96, 103], u'text': u'coding'}], u'symbols': [], u'urls': [{u'display_url': u'livecoding.tv/bugdoctor/', u'expanded_url': u'https://www.livecoding.tv/bugdoctor/', u'indices': [57, 80], u'url': u'https://t.co/VXpjE8UDVA'}], u'user_mentions': [{u'id': 800208576, u'id_str': u'800208576', u'indices': [3, 16], u'name': u'Sam Davis', u'screen_name': u'EcologyRocks'}, {u'id': 2814334612, u'id_str': u'2814334612', u'indices': [104, 117], u'name': u'Livecoding.tv', u'screen_name': u'livecodingtv'}]}, u'favorite_count': 0, u'favorited': False, u'geo': None, u'id': 635152069972860928, u'id_str': u'635152069972860928', u'in_reply_to_screen_name': None, ...}"
p173
sssS'traceback'
p174
S'Traceback (most recent call last):\n  File "/home/www-data/web2py/gluon/restricted.py", line 227, in restricted\n    exec ccode in environment\n  File "/home/www-data/web2py/applications/init/controllers/dashboard.py", line 71, in <module>\n  File "/home/www-data/web2py/gluon/globals.py", line 412, in <lambda>\n    self._caller = lambda f: f()\n  File "/home/www-data/web2py/applications/init/controllers/dashboard.py", line 69, in metrics\n    return json.dumps({"name":"hashtags","links":[{"rel":"self","href": url}],"counts": BUBBLE_STATS.trend_count })\nNameError: global name \'url\' is not defined\n'
p175
s.