(dp1
S'output'
p2
S"<type 'exceptions.TypeError'> unhashable type: 'list'"
p3
sS'layer'
p4
S'/home/www-data/web2py/applications/init/views/dashboard/index.html'
p5
sS'code'
p6
S'response.write(\'<!DOCTYPE html>\\n<!--[if (gt IE 9)|!(IE)]><!--> <html class="no-js" lang="\', escape=False)\nresponse.write(T.accepted_language or \'en\')\nresponse.write(\'"> <!--<![endif]-->\\n  <head>\\n    <meta charset="utf-8">\\n    <!-- www.phpied.com/conditional-comments-block-downloads/ -->\\n    <!-- Always force latest IE rendering engine\\n         (even in intranet) & Chrome Frame\\n         Remove this if you use the .htaccess -->\\n    <meta http-equiv="X-UA-Compatible" content="IE=edge\', escape=False)\nresponse.write(not request.is_local and \',chrome=1\' or \'\')\nresponse.write(\'">\\n    <!--  Mobile Viewport Fix\\n          j.mp/mobileviewport & davidbcalhoun.com/2010/viewport-metatag\\n          device-width: Occupy full width of the screen in its current orientation\\n          initial-scale = 1.0 retains dimensions instead of zooming out if page height > device height\\n          user-scalable = yes allows the user to zoom in -->\\n    <meta name="viewport" content="width=device-width, initial-scale=1.0">\\n    <title>\', escape=False)\nresponse.write(response.title or request.application)\nresponse.write(\'</title>\\n    <!-- http://dev.w3.org/html5/markup/meta.name.html -->\\n    <meta name="application-name" content="\', escape=False)\nresponse.write(request.application)\nresponse.write(\'">\\n    <!-- Speaking of Google, don\\\'t forget to set your site up:\\n         http://google.com/webmasters -->\\n    <meta name="google-site-verification" content="">\\n    <!-- include stylesheets -->\\n    <link rel="stylesheet" href="\', escape=False)\nresponse.write(URL(\'static\',\'css/bootstrap.min.css\'))\nresponse.write(\'"/>\\n    <link rel="stylesheet" href="\', escape=False)\nresponse.write(URL(\'static\',\'css/bootstrap-theme.min.css\'))\nresponse.write(\'"/>\\n    <link rel="stylesheet" href="\', escape=False)\nresponse.write(URL(\'static\',\'css/web2py-bootstrap3.css\'))\nresponse.write(\'"/>\\n    <link rel="stylesheet" href="\', escape=False)\nresponse.write(URL(\'static\',\'css/mydash.css\'))\nresponse.write(\'"/>\\n    <link rel="stylesheet" href="\', escape=False)\nresponse.write(URL(\'static\', \'font-awesome/css/font-awesome.min.css\'))\nresponse.write(\'">\\n    <link rel="stylesheet" href="\', escape=False)\nresponse.write(URL(\'static\', \'mfizz/font-mfizz.css\'))\nresponse.write(\'">\\n\\n    <!--<link rel="shortcut icon" href="\', escape=False)\nresponse.write(URL(\'static\',\'images/favicon.ico\'))\nresponse.write(\'" type="image/x-icon">-->\\n      <link href=\\\'https://d1fto35gcfffzn.cloudfront.net/images/favicon.ico\\\' rel=\\\'shortcut icon\\\' type=\\\'image/vnd.microsoft.icon\\\'>\\n\\n    <link rel="apple-touch-icon" href="\', escape=False)\nresponse.write(URL(\'static\',\'images/favicon.png\'))\nresponse.write(\'">\\n    <!-- All JavaScript at the bottom, except for Modernizr which enables\\n         HTML5 elements & feature detects -->\\n    <script src="\', escape=False)\nresponse.write(URL(\'static\',\'js/modernizr-2.8.3.min.js\'))\nresponse.write(\'"></script>\\n    <!--[if lt IE 9]>\\n        <script src="\', escape=False)\nresponse.write(URL(\'static\',\'js/respond-1.4.2.min.js\'))\nresponse.write(\'"></script>\\n        <![endif]-->\\n    <!-- Favicons -->\\n    \', escape=False)\nresponse.write(\'<script type="text/javascript"><!--\\n    // These variables are used by the web2py_ajax_init function in web2py_ajax.js (which is loaded below).\\n    var w2p_ajax_confirm_message = "\', escape=False)\nresponse.write(T(\'Are you sure you want to delete this object?\'))\nresponse.write(\'";\\n    var w2p_ajax_disable_with_message = "\', escape=False)\nresponse.write(T(\'Working...\'))\nresponse.write(\'";\\n    var w2p_ajax_date_format = "\', escape=False)\nresponse.write(T(\'%Y-%m-%d\'))\nresponse.write(\'";\\n    var w2p_ajax_datetime_format = "\', escape=False)\nresponse.write(T(\'%Y-%m-%d %H:%M:%S\'))\nresponse.write(\'";\\n    var ajax_error_500 = \\\'\', escape=False)\nresponse.write(T.M(\'An error occured, please [[reload %s]] the page\') % URL(args=request.args, vars=request.get_vars))\nresponse.write("\'\\n    //--></script>\\n", escape=False)\nresponse.files.insert(0,URL(\'static\',\'js/jquery.js\'))\nresponse.files.insert(1,URL(\'static\',\'css/calendar.css\'))\nresponse.files.insert(2,URL(\'static\',\'js/calendar.js\'))\nresponse.files.insert(3,URL(\'static\',\'js/web2py.js\'))\nresponse.include_meta()\nresponse.include_files()\nresponse.write(\'\\n\', escape=False)\nresponse.write(\' <!-- this includes jquery.js, calendar.js/.css and web2py.js -->\\n    \', escape=False)\nresponse.write(\'\\n    \', escape=False)\n# using sidebars need to know what sidebar you want to use\nmc0 = \'col-md-12\'\nmc1 = \'col-md-9\'\nmc2 = \'col-md-6\'\nleft_sidebar_enabled = globals().get(\'left_sidebar_enabled\', False)\nright_sidebar_enabled = globals().get(\'right_sidebar_enabled\', False)\nmiddle_column = {0: mc0, 1: mc1, 2: mc2}[\n(left_sidebar_enabled and 1 or 0)+(right_sidebar_enabled and 1 or 0)]\nresponse.write(\'\\n  </head>\\n  <body>\\n    <!--[if lt IE 8]><p class="browserupgrade">You are using an <strong>outdated</strong> browser. Please <a href="http://browsehappy.com/">upgrade your browser</a> to improve your experience.</p><![endif]-->\\n    <!-- Navbar ======================================= -->\\n    <nav class="navbar navbar-inverse navbar-fixed-top" role="navigation">\\n      <div class="container-fluid">\\n        <div class="navbar-header">\\n          <button type="button" class="navbar-toggle" data-toggle="collapse" data-target=".navbar-collapse">\\n            <span class="sr-only">Toggle navigation</span>\\n            <span class="icon-bar"></span>\\n            <span class="icon-bar"></span>\\n            <span class="icon-bar"></span>\\n          </button>\\n          \', escape=False)\nresponse.write(response.logo or \'\')\nresponse.write(\'\\n        </div>\\n        <div class="collapse navbar-collapse navbar-ex1-collapse">\\n          <ul class="nav navbar-nav navbar-right">\\n            <!--\', escape=False)\nresponse.write(\'auth\' in globals() and auth.navbar(\'Welcome\',mode=\'dropdown\') or \'\')\nresponse.write(\'-->\\n                   \', escape=False)\nif response.menu1:\n    response.write(\'\\n          \', escape=False)\n    response.write(MENU(response.menu1, _class=\'nav navbar-nav\',li_class=\'dropdown\',ul_class=\'dropdown-menu\'))\n    response.write(\'\\n          \', escape=False)\n    pass\nresponse.write(\'\\n          </ul>\\n          \', escape=False)\nif response.menu:\n    response.write(\'\\n          \', escape=False)\n    response.write(MENU(response.menu, _class=\'nav navbar-nav\',li_class=\'dropdown\',ul_class=\'dropdown-menu\'))\n    response.write(\'\\n          \', escape=False)\n    pass\nresponse.write(\'\\n        </div>\\n      </div>\\n    </nav>\\n    <!-- Masthead ===================================== -->    \\n    \', escape=False)\nresponse.write(\'\\n    \', escape=False)\nresponse.write(\'\\n    <!-- Main ========================================= -->\\n    <!-- Begin page content -->\\n    <div class="container-fluid">\\n      \', escape=False)\nif left_sidebar_enabled:\n    response.write(\'\\n        <div class="col-md-3 left-sidebar">\\n            \', escape=False)\n    response.write(\'\\n            <h3>Left Sidebar</h3>\\n            <p></p>\\n            \', escape=False)\n    response.write(\'\\n        </div>\\n      \', escape=False)\n    pass\nresponse.write(\'\\n\\n      <div class="\', escape=False)\nresponse.write(middle_column)\nresponse.write(\'">\\n        \', escape=False)\nresponse.write(\'\\n        \', escape=False)\nresponse.write(\'\\n\\n  <link rel="stylesheet" type="text/css" href="\', escape=False)\nresponse.write(URL(\'static\',\'keen/assets/css/keen-dashboards.css\'))\nresponse.write(\'" />\\n\\n\\n\\n    <div class="row" style="padding-top: 15px;">\\n\\n     <div class="col-sm-6">\\n\\n        <div class="row">\\n          <div class="col-sm-12">\\n            <div class="chart-wrapper">\\n              <div class="chart-title">\\n                               <i class="fa fa-lg fa-users"> User Sentiment</i>\\n              </div>\\n              <div class="chart-stage">\\n        <p id="pie" style="text-align: center; font-size: 16px;"></p>\\n              </div>\\n            </div>\\n          </div>\\n        </div>\\n\\n        <div class="row">\\n          <div class="col-sm-12">\\n            <div class="chart-wrapper">\\n              <div class="chart-title">\\n                <i class="fa fa-lg fa-twitter"> Twitter Timeline</i>\\n              </div>\\n              <div class="chart-stage">\\n      <div>\\n          \', escape=False)\nresponse.write(T(timeline))\nresponse.write(\'\\n      </div>\\n                </div>\\n            </div>\\n          </div>\\n        </div>\\n\\n      </div>\\n        \\n      <div class="col-sm-6">\\n        <div class="chart-wrapper">\\n          <div class="chart-title">\\n           <i class="fa fa-lg fa-slack"> Hashtag Distribution</i>\\n          </div>\\n          <div class="chart-stage">\\n      <p id="bubbles" style="text-align: center; font-size: 16px;"></p>\\n          </div>\\n        </div>\\n      </div>\\n\\n\\n    </div>\\n  </div>\\n\\n\\n<script src="\', escape=False)\nresponse.write(URL(\'static\',\'d3/js/d3.v3.min.js\'))\nresponse.write(\'"></script>\\n<script src="\', escape=False)\nresponse.write(URL(\'static\',\'d3/js/fvc.js\'))\nresponse.write(\'"></script>\\n<script src="\', escape=False)\nresponse.write(URL(\'static\',\'d3/js/aggcount.js\'))\nresponse.write(\'"></script>\\n<!--\\n<script src="\', escape=False)\nresponse.write(URL(\'static\',\'d3/js/bootstrap.js\'))\nresponse.write(\'"></script>\\n    <script src="\', escape=False)\nresponse.write(URL(\'static\',\'d3/js/jquery-1.10.2.min.js\'))\nresponse.write(\'"></script>\\n\\n-->\\n\\n<script>\\n\\tvar bubblechart = fvcBubbleChart().diameter(625);\\n    var piechart = fvcPieChart().width(355).height(335).r(135);\\n\\n\\tfunction redraw() {\\n        \\n                d3.json("/init/dashboard/sentiment")\\n                .get(function(error, json) {\\n                        if (error) {\\n                                return console.warn(error);\\n                        }\\n                        var data = d3.entries(json.counts);\\n                        data.sort(function(a,b) {\\n                                return b.value - a.value;\\n                        });\\n                        d3.select("#pie")\\n                                .datum(data)\\n                                .call(piechart);\\n                });\\n        \\n\\t\\td3.json("/init/dashboard/metrics")\\n\\t\\t.get(function(error, json) {\\n\\t\\t\\tif( error ){ \\n\\t\\t\\t\\treturn console.warn(error); \\n\\t\\t\\t}\\n\\t\\t\\tvar data = d3.entries(json.counts);\\n\\t\\t\\tdata.sort(function(a,b) { \\n\\t\\t\\t\\treturn b.value - a.value; \\n\\t\\t\\t});\\n        \\t\\tdata.splice(500);\\n        \\t\\td3.select("#bubbles")\\n\\t\\t\\t\\t.datum(data)\\n\\t\\t\\t\\t.call(bubblechart);\\n\\t\\t});\\n\\t}\\n\\n\\tredraw.call();\\n\\t//setInterval(redraw, 10000);\\n</script>\\n\\n  <script type="text/javascript" src="\', escape=False)\nresponse.write(URL(\'static\',\'keen/assets/lib/holderjs/holder.js\'))\nresponse.write(\'"></script>\\n  <script>\\n    Holder.add_theme("white", { background:"#fff", foreground:"#a7a7a7", size:10 });\\n  </script>\\n\\n  <script type="text/javascript" src="\', escape=False)\nresponse.write(URL(\'static\',\'keen/assets/lib/keen-js/dist/keen.min.js\'))\nresponse.write(\'"></script>\\n  <script type="text/javascript" src="\', escape=False)\nresponse.write(URL(\'static\',\'keen/assets/js/meta.js\'))\nresponse.write(\'"></script>\\n\', escape=False)\nresponse.write(\'\\n        \', escape=False)\nresponse.write(\'\\n      </div>\\n\\n      \', escape=False)\nif right_sidebar_enabled:\n    response.write(\'\\n        <div class="col-md-3">\\n            \', escape=False)\n    response.write(\'\\n            <h3>Right Sidebar</h3>\\n            <p></p>\\n            \', escape=False)\n    response.write(\'\\n        </div>\\n      \', escape=False)\n    pass\nresponse.write(\'\\n\\n    </div>\\n\\n    \', escape=False)\nresponse.write(\' <!-- this is default footer -->      \\n    <footer class="footer">\\n      <div class="container-fluid">\\n          <div class="copyright pull-left">\\n\', escape=False)\nresponse.write(T(\'Copyright\'))\nresponse.write(\' &#169; \', escape=False)\nresponse.write(request.now.year)\nresponse.write(\'<a class=\\\'footer-link\\\' href="https://pivotal.io"> Pivotal Software, Inc.</a> All Rights Reserved.\\n          </div>\\n<!--\\n          <div class = "pull-right">\\n          <a href=\\\'https://cloudfoundry.org\\\' class="pull-right background background-footer"></a>\\n          </div>\\n-->\\n          \\n      </div>\\n    </footer>\\n    \', escape=False)\nresponse.write(\'\\n    <!-- The javascript =============================== -->\\n    <script src="\', escape=False)\nresponse.write(URL(\'static\',\'js/bootstrap.min.js\'))\nresponse.write(\'"></script>\\n    <script src="\', escape=False)\nresponse.write(URL(\'static\',\'js/web2py-bootstrap3.js\'))\nresponse.write(\'"></script>\\n    \', escape=False)\nresponse.write(\'\\n    \', escape=False)\nif response.google_analytics_id:\n    response.write(\'\\n    <!-- Analytics ==================================== -->\\n    <script src="\', escape=False)\n    response.write(URL(\'static\',\'js/analytics.min.js\'))\n    response.write(\'"></script>\\n    <script type="text/javascript">\\n      analytics.initialize({\\n      \\\'Google Analytics\\\':{trackingId:\\\'\', escape=False)\n    response.write(response.google_analytics_id)\n    response.write("\'}\\n      });\\n    </script>\\n    ", escape=False)\n    pass\nresponse.write(\'\\n\\n  </body>\\n</html>\\n\', escape=False)'
p7
sS'snapshot'
p8
(dp9
S'exception'
p10
(dp11
S'__hash__'
p12
S"<method-wrapper '__hash__' of exceptions.TypeError object>"
p13
sS'__setattr__'
p14
S"<method-wrapper '__setattr__' of exceptions.TypeError object>"
p15
sS'__reduce_ex__'
p16
S'<built-in method __reduce_ex__ of exceptions.TypeError object>'
p17
sS'__getslice__'
p18
S"<method-wrapper '__getslice__' of exceptions.TypeError object>"
p19
sS'__getitem__'
p20
S"<method-wrapper '__getitem__' of exceptions.TypeError object>"
p21
sS'__setstate__'
p22
S'<built-in method __setstate__ of exceptions.TypeError object>'
p23
sS'args'
p24
S'("unhashable type: \'list\'",)'
p25
sS'__reduce__'
p26
S'<built-in method __reduce__ of exceptions.TypeError object>'
p27
sS'__str__'
p28
S"<method-wrapper '__str__' of exceptions.TypeError object>"
p29
sS'__format__'
p30
S'<built-in method __format__ of exceptions.TypeError object>'
p31
sS'__getattribute__'
p32
S"<method-wrapper '__getattribute__' of exceptions.TypeError object>"
p33
sS'__class__'
p34
S"<type 'exceptions.TypeError'>"
p35
sS'__unicode__'
p36
S'<built-in method __unicode__ of exceptions.TypeError object>'
p37
sS'__delattr__'
p38
S"<method-wrapper '__delattr__' of exceptions.TypeError object>"
p39
sS'__subclasshook__'
p40
S'<built-in method __subclasshook__ of type object>'
p41
sS'__repr__'
p42
S"<method-wrapper '__repr__' of exceptions.TypeError object>"
p43
sS'__dict__'
p44
S'{}'
p45
sS'__sizeof__'
p46
S'<built-in method __sizeof__ of exceptions.TypeError object>'
p47
sS'__doc__'
p48
S"'Inappropriate argument type.'"
p49
sS'__init__'
p50
S"<method-wrapper '__init__' of exceptions.TypeError object>"
p51
sS'__new__'
p52
S'<built-in method __new__ of type object>'
p53
ssS'evalue'
p54
S"unhashable type: 'list'"
p55
sS'request'
p56
cgluon.html
XML_unpickle
p57
(S's6\x81\x00\x00<div><table><tr><td style="font-weight:bold;vertical-align:top;">ajax</td><td style="vertical-align:top;">:</td><td><div>False</div></td></tr><tr><td style="font-weight:bold;vertical-align:top;">application</td><td style="vertical-align:top;">:</td><td><div>init</div></td></tr><tr><td style="font-weight:bold;vertical-align:top;">args</td><td style="vertical-align:top;">:</td><td><div><table></table></div></td></tr><tr><td style="font-weight:bold;vertical-align:top;">cid</td><td style="vertical-align:top;">:</td><td><div>None</div></td></tr><tr><td style="font-weight:bold;vertical-align:top;">client</td><td style="vertical-align:top;">:</td><td><div>192.168.56.1</div></td></tr><tr><td style="font-weight:bold;vertical-align:top;">controller</td><td style="vertical-align:top;">:</td><td><div>dashboard</div></td></tr><tr><td style="font-weight:bold;vertical-align:top;">cookies</td><td style="vertical-align:top;">:</td><td><div><table><tr><td style="font-weight:bold;vertical-align:top;">session_id_admin</td><td style="vertical-align:top;">:</td><td><div>192.168.56.1-d12a00ed-961a-4f3a-a3f4-955dd0f254c5<table><tr><td style="font-weight:bold;vertical-align:top;">comment</td><td style="vertical-align:top;">:</td><td><div></div></td></tr><tr><td style="font-weight:bold;vertical-align:top;">domain</td><td style="vertical-align:top;">:</td><td><div></div></td></tr><tr><td style="font-weight:bold;vertical-align:top;">expires</td><td style="vertical-align:top;">:</td><td><div></div></td></tr><tr><td style="font-weight:bold;vertical-align:top;">httponly</td><td style="vertical-align:top;">:</td><td><div></div></td></tr><tr><td style="font-weight:bold;vertical-align:top;">max-age</td><td style="vertical-align:top;">:</td><td><div></div></td></tr><tr><td style="font-weight:bold;vertical-align:top;">path</td><td style="vertical-align:top;">:</td><td><div></div></td></tr><tr><td style="font-weight:bold;vertical-align:top;">secure</td><td style="vertical-align:top;">:</td><td><div></div></td></tr><tr><td style="font-weight:bold;vertical-align:top;">version</td><td style="vertical-align:top;">:</td><td><div></div></td></tr></table></div></td></tr><tr><td style="font-weight:bold;vertical-align:top;">session_id_hrcexplorer</td><td style="vertical-align:top;">:</td><td><div>192.168.56.1-9b2fefff-e522-4932-b1af-6e0f5be6f0a1<table><tr><td style="font-weight:bold;vertical-align:top;">comment</td><td style="vertical-align:top;">:</td><td><div></div></td></tr><tr><td style="font-weight:bold;vertical-align:top;">domain</td><td style="vertical-align:top;">:</td><td><div></div></td></tr><tr><td style="font-weight:bold;vertical-align:top;">expires</td><td style="vertical-align:top;">:</td><td><div></div></td></tr><tr><td style="font-weight:bold;vertical-align:top;">httponly</td><td style="vertical-align:top;">:</td><td><div></div></td></tr><tr><td style="font-weight:bold;vertical-align:top;">max-age</td><td style="vertical-align:top;">:</td><td><div></div></td></tr><tr><td style="font-weight:bold;vertical-align:top;">path</td><td style="vertical-align:top;">:</td><td><div></div></td></tr><tr><td style="font-weight:bold;vertical-align:top;">secure</td><td style="vertical-align:top;">:</td><td><div></div></td></tr><tr><td style="font-weight:bold;vertical-align:top;">version</td><td style="vertical-align:top;">:</td><td><div></div></td></tr></table></div></td></tr><tr><td style="font-weight:bold;vertical-align:top;">session_id_init</td><td style="vertical-align:top;">:</td><td><div>192.168.56.1-0f4422b9-c67c-40e5-80f5-550febb1f441<table><tr><td style="font-weight:bold;vertical-align:top;">comment</td><td style="vertical-align:top;">:</td><td><div></div></td></tr><tr><td style="font-weight:bold;vertical-align:top;">domain</td><td style="vertical-align:top;">:</td><td><div></div></td></tr><tr><td style="font-weight:bold;vertical-align:top;">expires</td><td style="vertical-align:top;">:</td><td><div></div></td></tr><tr><td style="font-weight:bold;vertical-align:top;">httponly</td><td style="vertical-align:top;">:</td><td><div></div></td></tr><tr><td style="font-weight:bold;vertical-align:top;">max-age</td><td style="vertical-align:top;">:</td><td><div></div></td></tr><tr><td style="font-weight:bold;vertical-align:top;">path</td><td style="vertical-align:top;">:</td><td><div></div></td></tr><tr><td style="font-weight:bold;vertical-align:top;">secure</td><td style="vertical-align:top;">:</td><td><div></div></td></tr><tr><td style="font-weight:bold;vertical-align:top;">version</td><td style="vertical-align:top;">:</td><td><div></div></td></tr></table></div></td></tr><tr><td style="font-weight:bold;vertical-align:top;">session_id_jetexplorer</td><td style="vertical-align:top;">:</td><td><div>192.168.56.1-a7a6f093-5af1-4864-a620-0f1451f0c7b6<table><tr><td style="font-weight:bold;vertical-align:top;">comment</td><td style="vertical-align:top;">:</td><td><div></div></td></tr><tr><td style="font-weight:bold;vertical-align:top;">domain</td><td style="vertical-align:top;">:</td><td><div></div></td></tr><tr><td style="font-weight:bold;vertical-align:top;">expires</td><td style="vertical-align:top;">:</td><td><div></div></td></tr><tr><td style="font-weight:bold;vertical-align:top;">httponly</td><td style="vertical-align:top;">:</td><td><div></div></td></tr><tr><td style="font-weight:bold;vertical-align:top;">max-age</td><td style="vertical-align:top;">:</td><td><div></div></td></tr><tr><td style="font-weight:bold;vertical-align:top;">path</td><td style="vertical-align:top;">:</td><td><div></div></td></tr><tr><td style="font-weight:bold;vertical-align:top;">secure</td><td style="vertical-align:top;">:</td><td><div></div></td></tr><tr><td style="font-weight:bold;vertical-align:top;">version</td><td style="vertical-align:top;">:</td><td><div></div></td></tr></table></div></td></tr><tr><td style="font-weight:bold;vertical-align:top;">session_id_lockheed</td><td style="vertical-align:top;">:</td><td><div>192.168.56.1-1b96a350-49cc-46e2-8fe2-1ea03dc887f0<table><tr><td style="font-weight:bold;vertical-align:top;">comment</td><td style="vertical-align:top;">:</td><td><div></div></td></tr><tr><td style="font-weight:bold;vertical-align:top;">domain</td><td style="vertical-align:top;">:</td><td><div></div></td></tr><tr><td style="font-weight:bold;vertical-align:top;">expires</td><td style="vertical-align:top;">:</td><td><div></div></td></tr><tr><td style="font-weight:bold;vertical-align:top;">httponly</td><td style="vertical-align:top;">:</td><td><div></div></td></tr><tr><td style="font-weight:bold;vertical-align:top;">max-age</td><td style="vertical-align:top;">:</td><td><div></div></td></tr><tr><td style="font-weight:bold;vertical-align:top;">path</td><td style="vertical-align:top;">:</td><td><div></div></td></tr><tr><td style="font-weight:bold;vertical-align:top;">secure</td><td style="vertical-align:top;">:</td><td><div></div></td></tr><tr><td style="font-weight:bold;vertical-align:top;">version</td><td style="vertical-align:top;">:</td><td><div></div></td></tr></table></div></td></tr><tr><td style="font-weight:bold;vertical-align:top;">session_id_test</td><td style="vertical-align:top;">:</td><td><div>192.168.56.1-4574d531-8bf7-4b67-88b3-7ef6352d22b5<table><tr><td style="font-weight:bold;vertical-align:top;">comment</td><td style="vertical-align:top;">:</td><td><div></div></td></tr><tr><td style="font-weight:bold;vertical-align:top;">domain</td><td style="vertical-align:top;">:</td><td><div></div></td></tr><tr><td style="font-weight:bold;vertical-align:top;">expires</td><td style="vertical-align:top;">:</td><td><div></div></td></tr><tr><td style="font-weight:bold;vertical-align:top;">httponly</td><td style="vertical-align:top;">:</td><td><div></div></td></tr><tr><td style="font-weight:bold;vertical-align:top;">max-age</td><td style="vertical-align:top;">:</td><td><div></div></td></tr><tr><td style="font-weight:bold;vertical-align:top;">path</td><td style="vertical-align:top;">:</td><td><div></div></td></tr><tr><td style="font-weight:bold;vertical-align:top;">secure</td><td style="vertical-align:top;">:</td><td><div></div></td></tr><tr><td style="font-weight:bold;vertical-align:top;">version</td><td style="vertical-align:top;">:</td><td><div></div></td></tr></table></div></td></tr><tr><td style="font-weight:bold;vertical-align:top;">session_id_welcome</td><td style="vertical-align:top;">:</td><td><div>192.168.56.1-1df545f1-d577-4d48-ae1d-3cc8ff8b001d<table><tr><td style="font-weight:bold;vertical-align:top;">comment</td><td style="vertical-align:top;">:</td><td><div></div></td></tr><tr><td style="font-weight:bold;vertical-align:top;">domain</td><td style="vertical-align:top;">:</td><td><div></div></td></tr><tr><td style="font-weight:bold;vertical-align:top;">expires</td><td style="vertical-align:top;">:</td><td><div></div></td></tr><tr><td style="font-weight:bold;vertical-align:top;">httponly</td><td style="vertical-align:top;">:</td><td><div></div></td></tr><tr><td style="font-weight:bold;vertical-align:top;">max-age</td><td style="vertical-align:top;">:</td><td><div></div></td></tr><tr><td style="font-weight:bold;vertical-align:top;">path</td><td style="vertical-align:top;">:</td><td><div></div></td></tr><tr><td style="font-weight:bold;vertical-align:top;">secure</td><td style="vertical-align:top;">:</td><td><div></div></td></tr><tr><td style="font-weight:bold;vertical-align:top;">version</td><td style="vertical-align:top;">:</td><td><div></div></td></tr></table></div></td></tr></table></div></td></tr><tr><td style="font-weight:bold;vertical-align:top;">env</td><td style="vertical-align:top;">:</td><td><div><table><tr><td style="font-weight:bold;vertical-align:top;">CONTEXT_DOCUMENT_ROOT</td><td style="vertical-align:top;">:</td><td><div>/var/www</div></td></tr><tr><td style="font-weight:bold;vertical-align:top;">CONTEXT_PREFIX</td><td style="vertical-align:top;">:</td><td><div></div></td></tr><tr><td style="font-weight:bold;vertical-align:top;">DOCUMENT_ROOT</td><td style="vertical-align:top;">:</td><td><div>/var/www</div></td></tr><tr><td style="font-weight:bold;vertical-align:top;">GATEWAY_INTERFACE</td><td style="vertical-align:top;">:</td><td><div>CGI/1.1</div></td></tr><tr><td style="font-weight:bold;vertical-align:top;">HTTP_ACCEPT</td><td style="vertical-align:top;">:</td><td><div>text/html,application/xhtml+xml,application/xml;q=0.9,image/webp,*/*;q=0.8</div></td></tr><tr><td style="font-weight:bold;vertical-align:top;">HTTP_ACCEPT_ENCODING</td><td style="vertical-align:top;">:</td><td><div>gzip, deflate, sdch</div></td></tr><tr><td style="font-weight:bold;vertical-align:top;">HTTP_ACCEPT_LANGUAGE</td><td style="vertical-align:top;">:</td><td><div>en-US,en;q=0.8,pl;q=0.6</div></td></tr><tr><td style="font-weight:bold;vertical-align:top;">HTTP_CACHE_CONTROL</td><td style="vertical-align:top;">:</td><td><div>no-cache</div></td></tr><tr><td style="font-weight:bold;vertical-align:top;">HTTP_CONNECTION</td><td style="vertical-align:top;">:</td><td><div>keep-alive</div></td></tr><tr><td style="font-weight:bold;vertical-align:top;">HTTP_COOKIE</td><td style="vertical-align:top;">:</td><td><div>session_id_lockheed=192.168.56.1-1b96a350-49cc-46e2-8fe2-1ea03dc887f0; session_id_hrcexplorer=192.168.56.1-9b2fefff-e522-4932-b1af-6e0f5be6f0a1; session_id_jetexplorer=192.168.56.1-a7a6f093-5af1-4864-a620-0f1451f0c7b6; session_id_welcome=192.168.56.1-1df545f1-d577-4d48-ae1d-3cc8ff8b001d; session_id_test=192.168.56.1-4574d531-8bf7-4b67-88b3-7ef6352d22b5; session_id_init=192.168.56.1-0f4422b9-c67c-40e5-80f5-550febb1f441; session_id_admin=192.168.56.1-d12a00ed-961a-4f3a-a3f4-955dd0f254c5</div></td></tr><tr><td style="font-weight:bold;vertical-align:top;">HTTP_HOST</td><td style="vertical-align:top;">:</td><td><div>devbox</div></td></tr><tr><td style="font-weight:bold;vertical-align:top;">HTTP_PRAGMA</td><td style="vertical-align:top;">:</td><td><div>no-cache</div></td></tr><tr><td style="font-weight:bold;vertical-align:top;">HTTP_REFERER</td><td style="vertical-align:top;">:</td><td><div>https://api.twitter.com/oauth/authenticate</div></td></tr><tr><td style="font-weight:bold;vertical-align:top;">HTTP_UPGRADE_INSECURE_REQUESTS</td><td style="vertical-align:top;">:</td><td><div>1</div></td></tr><tr><td style="font-weight:bold;vertical-align:top;">HTTP_USER_AGENT</td><td style="vertical-align:top;">:</td><td><div>Mozilla/5.0 (Macintosh; Intel Mac OS X 10_9_5) AppleWebKit/537.36 (KHTML, like Gecko) Chrome/44.0.2403.157 Safari/537.36</div></td></tr><tr><td style="font-weight:bold;vertical-align:top;">PATH_INFO</td><td style="vertical-align:top;">:</td><td><div>/init/dashboard</div></td></tr><tr><td style="font-weight:bold;vertical-align:top;">PATH_TRANSLATED</td><td style="vertical-align:top;">:</td><td><div>/home/www-data/web2py/wsgihandler.py/init/dashboard</div></td></tr><tr><td style="font-weight:bold;vertical-align:top;">QUERY_STRING</td><td style="vertical-align:top;">:</td><td><div></div></td></tr><tr><td style="font-weight:bold;vertical-align:top;">REMOTE_ADDR</td><td style="vertical-align:top;">:</td><td><div>192.168.56.1</div></td></tr><tr><td style="font-weight:bold;vertical-align:top;">REMOTE_PORT</td><td style="vertical-align:top;">:</td><td><div>55450</div></td></tr><tr><td style="font-weight:bold;vertical-align:top;">REQUEST_METHOD</td><td style="vertical-align:top;">:</td><td><div>GET</div></td></tr><tr><td style="font-weight:bold;vertical-align:top;">REQUEST_SCHEME</td><td style="vertical-align:top;">:</td><td><div>https</div></td></tr><tr><td style="font-weight:bold;vertical-align:top;">REQUEST_URI</td><td style="vertical-align:top;">:</td><td><div>/init/dashboard</div></td></tr><tr><td style="font-weight:bold;vertical-align:top;">SCRIPT_FILENAME</td><td style="vertical-align:top;">:</td><td><div>/home/www-data/web2py/wsgihandler.py</div></td></tr><tr><td style="font-weight:bold;vertical-align:top;">SCRIPT_NAME</td><td style="vertical-align:top;">:</td><td><div></div></td></tr><tr><td style="font-weight:bold;vertical-align:top;">SERVER_ADDR</td><td style="vertical-align:top;">:</td><td><div>192.168.56.101</div></td></tr><tr><td style="font-weight:bold;vertical-align:top;">SERVER_ADMIN</td><td style="vertical-align:top;">:</td><td><div>[no address given]</div></td></tr><tr><td style="font-weight:bold;vertical-align:top;">SERVER_NAME</td><td style="vertical-align:top;">:</td><td><div>devbox</div></td></tr><tr><td style="font-weight:bold;vertical-align:top;">SERVER_PORT</td><td style="vertical-align:top;">:</td><td><div>443</div></td></tr><tr><td style="font-weight:bold;vertical-align:top;">SERVER_PROTOCOL</td><td style="vertical-align:top;">:</td><td><div>HTTP/1.1</div></td></tr><tr><td style="font-weight:bold;vertical-align:top;">SERVER_SIGNATURE</td><td style="vertical-align:top;">:</td><td><div>&lt;address&gt;Apache/2.4.7 (Ubuntu) Server at devbox Port 443&lt;/address&gt;\n</div></td></tr><tr><td style="font-weight:bold;vertical-align:top;">SERVER_SOFTWARE</td><td style="vertical-align:top;">:</td><td><div>Apache/2.4.7 (Ubuntu)</div></td></tr><tr><td style="font-weight:bold;vertical-align:top;">SSL_TLS_SNI</td><td style="vertical-align:top;">:</td><td><div>devbox</div></td></tr><tr><td style="font-weight:bold;vertical-align:top;">app_folders</td><td style="vertical-align:top;">:</td><td><div>set([&#x27;/home/www-data/web2py/applications/admin/&#x27;, &#x27;/home/www-data/web2py/applications/init/&#x27;])</div></td></tr><tr><td style="font-weight:bold;vertical-align:top;">applications_parent</td><td style="vertical-align:top;">:</td><td><div>/home/www-data/web2py</div></td></tr><tr><td style="font-weight:bold;vertical-align:top;">context_document_root</td><td style="vertical-align:top;">:</td><td><div>/var/www</div></td></tr><tr><td style="font-weight:bold;vertical-align:top;">context_prefix</td><td style="vertical-align:top;">:</td><td><div></div></td></tr><tr><td style="font-weight:bold;vertical-align:top;">db_sessions</td><td style="vertical-align:top;">:</td><td><div>set([])</div></td></tr><tr><td style="font-weight:bold;vertical-align:top;">debugging</td><td style="vertical-align:top;">:</td><td><div>True</div></td></tr><tr><td style="font-weight:bold;vertical-align:top;">document_root</td><td style="vertical-align:top;">:</td><td><div>/var/www</div></td></tr><tr><td style="font-weight:bold;vertical-align:top;">gateway_interface</td><td style="vertical-align:top;">:</td><td><div>CGI/1.1</div></td></tr><tr><td style="font-weight:bold;vertical-align:top;">gluon_parent</td><td style="vertical-align:top;">:</td><td><div>/home/www-data/web2py</div></td></tr><tr><td style="font-weight:bold;vertical-align:top;">http_accept</td><td style="vertical-align:top;">:</td><td><div>text/html,application/xhtml+xml,application/xml;q=0.9,image/webp,*/*;q=0.8</div></td></tr><tr><td style="font-weight:bold;vertical-align:top;">http_accept_encoding</td><td style="vertical-align:top;">:</td><td><div>gzip, deflate, sdch</div></td></tr><tr><td style="font-weight:bold;vertical-align:top;">http_accept_language</td><td style="vertical-align:top;">:</td><td><div>en-US,en;q=0.8,pl;q=0.6</div></td></tr><tr><td style="font-weight:bold;vertical-align:top;">http_cache_control</td><td style="vertical-align:top;">:</td><td><div>no-cache</div></td></tr><tr><td style="font-weight:bold;vertical-align:top;">http_connection</td><td style="vertical-align:top;">:</td><td><div>keep-alive</div></td></tr><tr><td style="font-weight:bold;vertical-align:top;">http_cookie</td><td style="vertical-align:top;">:</td><td><div>session_id_lockheed=192.168.56.1-1b96a350-49cc-46e2-8fe2-1ea03dc887f0; session_id_hrcexplorer=192.168.56.1-9b2fefff-e522-4932-b1af-6e0f5be6f0a1; session_id_jetexplorer=192.168.56.1-a7a6f093-5af1-4864-a620-0f1451f0c7b6; session_id_welcome=192.168.56.1-1df545f1-d577-4d48-ae1d-3cc8ff8b001d; session_id_test=192.168.56.1-4574d531-8bf7-4b67-88b3-7ef6352d22b5; session_id_init=192.168.56.1-0f4422b9-c67c-40e5-80f5-550febb1f441; session_id_admin=192.168.56.1-d12a00ed-961a-4f3a-a3f4-955dd0f254c5</div></td></tr><tr><td style="font-weight:bold;vertical-align:top;">http_host</td><td style="vertical-align:top;">:</td><td><div>devbox</div></td></tr><tr><td style="font-weight:bold;vertical-align:top;">http_pragma</td><td style="vertical-align:top;">:</td><td><div>no-cache</div></td></tr><tr><td style="font-weight:bold;vertical-align:top;">http_referer</td><td style="vertical-align:top;">:</td><td><div>https://api.twitter.com/oauth/authenticate</div></td></tr><tr><td style="font-weight:bold;vertical-align:top;">http_upgrade_insecure_requests</td><td style="vertical-align:top;">:</td><td><div>1</div></td></tr><tr><td style="font-weight:bold;vertical-align:top;">http_user_agent</td><td style="vertical-align:top;">:</td><td><div>Mozilla/5.0 (Macintosh; Intel Mac OS X 10_9_5) AppleWebKit/537.36 (KHTML, like Gecko) Chrome/44.0.2403.157 Safari/537.36</div></td></tr><tr><td style="font-weight:bold;vertical-align:top;">is_jython</td><td style="vertical-align:top;">:</td><td><div>False</div></td></tr><tr><td style="font-weight:bold;vertical-align:top;">is_pypy</td><td style="vertical-align:top;">:</td><td><div>False</div></td></tr><tr><td style="font-weight:bold;vertical-align:top;">is_source</td><td style="vertical-align:top;">:</td><td><div>True</div></td></tr><tr><td style="font-weight:bold;vertical-align:top;">local_hosts</td><td style="vertical-align:top;">:</td><td><div><table><tr><td><div>devbox</div></td></tr><tr><td><div>::1</div></td></tr><tr><td><div>127.0.1.1</div></td></tr><tr><td><div>::ffff:127.0.0.1</div></td></tr><tr><td><div>127.0.0.1</div></td></tr></table></div></td></tr><tr><td style="font-weight:bold;vertical-align:top;">mod_wsgi.application_group</td><td style="vertical-align:top;">:</td><td><div>127.0.1.1|</div></td></tr><tr><td style="font-weight:bold;vertical-align:top;">mod_wsgi.callable_object</td><td style="vertical-align:top;">:</td><td><div>application</div></td></tr><tr><td style="font-weight:bold;vertical-align:top;">mod_wsgi.enable_sendfile</td><td style="vertical-align:top;">:</td><td><div>0</div></td></tr><tr><td style="font-weight:bold;vertical-align:top;">mod_wsgi.handler_script</td><td style="vertical-align:top;">:</td><td><div></div></td></tr><tr><td style="font-weight:bold;vertical-align:top;">mod_wsgi.input_chunked</td><td style="vertical-align:top;">:</td><td><div>0</div></td></tr><tr><td style="font-weight:bold;vertical-align:top;">mod_wsgi.listener_host</td><td style="vertical-align:top;">:</td><td><div></div></td></tr><tr><td style="font-weight:bold;vertical-align:top;">mod_wsgi.listener_port</td><td style="vertical-align:top;">:</td><td><div>443</div></td></tr><tr><td style="font-weight:bold;vertical-align:top;">mod_wsgi.process_group</td><td style="vertical-align:top;">:</td><td><div>web2py</div></td></tr><tr><td style="font-weight:bold;vertical-align:top;">mod_wsgi.queue_start</td><td style="vertical-align:top;">:</td><td><div>1441317777944366</div></td></tr><tr><td style="font-weight:bold;vertical-align:top;">mod_wsgi.request_handler</td><td style="vertical-align:top;">:</td><td><div>wsgi-script</div></td></tr><tr><td style="font-weight:bold;vertical-align:top;">mod_wsgi.script_reloading</td><td style="vertical-align:top;">:</td><td><div>1</div></td></tr><tr><td style="font-weight:bold;vertical-align:top;">mod_wsgi.version</td><td style="vertical-align:top;">:</td><td><div><table><tr><td><div>3</div></td></tr><tr><td><div>4</div></td></tr></table></div></td></tr><tr><td style="font-weight:bold;vertical-align:top;">mod_wsgi_application_group</td><td style="vertical-align:top;">:</td><td><div>127.0.1.1|</div></td></tr><tr><td style="font-weight:bold;vertical-align:top;">mod_wsgi_callable_object</td><td style="vertical-align:top;">:</td><td><div>application</div></td></tr><tr><td style="font-weight:bold;vertical-align:top;">mod_wsgi_enable_sendfile</td><td style="vertical-align:top;">:</td><td><div>0</div></td></tr><tr><td style="font-weight:bold;vertical-align:top;">mod_wsgi_handler_script</td><td style="vertical-align:top;">:</td><td><div></div></td></tr><tr><td style="font-weight:bold;vertical-align:top;">mod_wsgi_input_chunked</td><td style="vertical-align:top;">:</td><td><div>0</div></td></tr><tr><td style="font-weight:bold;vertical-align:top;">mod_wsgi_listener_host</td><td style="vertical-align:top;">:</td><td><div></div></td></tr><tr><td style="font-weight:bold;vertical-align:top;">mod_wsgi_listener_port</td><td style="vertical-align:top;">:</td><td><div>443</div></td></tr><tr><td style="font-weight:bold;vertical-align:top;">mod_wsgi_process_group</td><td style="vertical-align:top;">:</td><td><div>web2py</div></td></tr><tr><td style="font-weight:bold;vertical-align:top;">mod_wsgi_queue_start</td><td style="vertical-align:top;">:</td><td><div>1441317777944366</div></td></tr><tr><td style="font-weight:bold;vertical-align:top;">mod_wsgi_request_handler</td><td style="vertical-align:top;">:</td><td><div>wsgi-script</div></td></tr><tr><td style="font-weight:bold;vertical-align:top;">mod_wsgi_script_reloading</td><td style="vertical-align:top;">:</td><td><div>1</div></td></tr><tr><td style="font-weight:bold;vertical-align:top;">mod_wsgi_version</td><td style="vertical-align:top;">:</td><td><div><table><tr><td><div>3</div></td></tr><tr><td><div>4</div></td></tr></table></div></td></tr><tr><td style="font-weight:bold;vertical-align:top;">path_info</td><td style="vertical-align:top;">:</td><td><div>/init/dashboard</div></td></tr><tr><td style="font-weight:bold;vertical-align:top;">path_translated</td><td style="vertical-align:top;">:</td><td><div>/home/www-data/web2py/wsgihandler.py/init/dashboard</div></td></tr><tr><td style="font-weight:bold;vertical-align:top;">query_string</td><td style="vertical-align:top;">:</td><td><div></div></td></tr><tr><td style="font-weight:bold;vertical-align:top;">remote_addr</td><td style="vertical-align:top;">:</td><td><div>192.168.56.1</div></td></tr><tr><td style="font-weight:bold;vertical-align:top;">remote_port</td><td style="vertical-align:top;">:</td><td><div>55450</div></td></tr><tr><td style="font-weight:bold;vertical-align:top;">request_method</td><td style="vertical-align:top;">:</td><td><div>GET</div></td></tr><tr><td style="font-weight:bold;vertical-align:top;">request_scheme</td><td style="vertical-align:top;">:</td><td><div>https</div></td></tr><tr><td style="font-weight:bold;vertical-align:top;">request_uri</td><td style="vertical-align:top;">:</td><td><div>/init/dashboard</div></td></tr><tr><td style="font-weight:bold;vertical-align:top;">script_filename</td><td style="vertical-align:top;">:</td><td><div>/home/www-data/web2py/wsgihandler.py</div></td></tr><tr><td style="font-weight:bold;vertical-align:top;">script_name</td><td style="vertical-align:top;">:</td><td><div></div></td></tr><tr><td style="font-weight:bold;vertical-align:top;">server_addr</td><td style="vertical-align:top;">:</td><td><div>192.168.56.101</div></td></tr><tr><td style="font-weight:bold;vertical-align:top;">server_admin</td><td style="vertical-align:top;">:</td><td><div>[no address given]</div></td></tr><tr><td style="font-weight:bold;vertical-align:top;">server_name</td><td style="vertical-align:top;">:</td><td><div>devbox</div></td></tr><tr><td style="font-weight:bold;vertical-align:top;">server_port</td><td style="vertical-align:top;">:</td><td><div>443</div></td></tr><tr><td style="font-weight:bold;vertical-align:top;">server_protocol</td><td style="vertical-align:top;">:</td><td><div>HTTP/1.1</div></td></tr><tr><td style="font-weight:bold;vertical-align:top;">server_signature</td><td style="vertical-align:top;">:</td><td><div>&lt;address&gt;Apache/2.4.7 (Ubuntu) Server at devbox Port 443&lt;/address&gt;\n</div></td></tr><tr><td style="font-weight:bold;vertical-align:top;">server_software</td><td style="vertical-align:top;">:</td><td><div>Apache/2.4.7 (Ubuntu)</div></td></tr><tr><td style="font-weight:bold;vertical-align:top;">ssl_tls_sni</td><td style="vertical-align:top;">:</td><td><div>devbox</div></td></tr><tr><td style="font-weight:bold;vertical-align:top;">web2py_path</td><td style="vertical-align:top;">:</td><td><div>/home/www-data/web2py</div></td></tr><tr><td style="font-weight:bold;vertical-align:top;">web2py_version</td><td style="vertical-align:top;">:</td><td><div>2.12.3-stable+timestamp.2015.08.19.00.18.03</div></td></tr><tr><td style="font-weight:bold;vertical-align:top;">wsgi.errors</td><td style="vertical-align:top;">:</td><td><div>&lt;mod_wsgi.Log object at 0x7f91ccbd5030&gt;</div></td></tr><tr><td style="font-weight:bold;vertical-align:top;">wsgi.file_wrapper</td><td style="vertical-align:top;">:</td><td><div>&lt;built-in method file_wrapper of mod_wsgi.Adapter object at 0x7f91f1fb0d50&gt;</div></td></tr><tr><td style="font-weight:bold;vertical-align:top;">wsgi.input</td><td style="vertical-align:top;">:</td><td><div>&lt;mod_wsgi.Input object at 0x7f91f0054fb0&gt;</div></td></tr><tr><td style="font-weight:bold;vertical-align:top;">wsgi.multiprocess</td><td style="vertical-align:top;">:</td><td><div>False</div></td></tr><tr><td style="font-weight:bold;vertical-align:top;">wsgi.multithread</td><td style="vertical-align:top;">:</td><td><div>True</div></td></tr><tr><td style="font-weight:bold;vertical-align:top;">wsgi.run_once</td><td style="vertical-align:top;">:</td><td><div>False</div></td></tr><tr><td style="font-weight:bold;vertical-align:top;">wsgi.url_scheme</td><td style="vertical-align:top;">:</td><td><div>https</div></td></tr><tr><td style="font-weight:bold;vertical-align:top;">wsgi.version</td><td style="vertical-align:top;">:</td><td><div><table><tr><td><div>1</div></td></tr><tr><td><div>0</div></td></tr></table></div></td></tr><tr><td style="font-weight:bold;vertical-align:top;">wsgi_errors</td><td style="vertical-align:top;">:</td><td><div>&lt;mod_wsgi.Log object at 0x7f91ccbd5030&gt;</div></td></tr><tr><td style="font-weight:bold;vertical-align:top;">wsgi_file_wrapper</td><td style="vertical-align:top;">:</td><td><div>&lt;built-in method file_wrapper of mod_wsgi.Adapter object at 0x7f91f1fb0d50&gt;</div></td></tr><tr><td style="font-weight:bold;vertical-align:top;">wsgi_input</td><td style="vertical-align:top;">:</td><td><div>&lt;mod_wsgi.Input object at 0x7f91f0054fb0&gt;</div></td></tr><tr><td style="font-weight:bold;vertical-align:top;">wsgi_multiprocess</td><td style="vertical-align:top;">:</td><td><div>False</div></td></tr><tr><td style="font-weight:bold;vertical-align:top;">wsgi_multithread</td><td style="vertical-align:top;">:</td><td><div>True</div></td></tr><tr><td style="font-weight:bold;vertical-align:top;">wsgi_run_once</td><td style="vertical-align:top;">:</td><td><div>False</div></td></tr><tr><td style="font-weight:bold;vertical-align:top;">wsgi_url_scheme</td><td style="vertical-align:top;">:</td><td><div>https</div></td></tr><tr><td style="font-weight:bold;vertical-align:top;">wsgi_version</td><td style="vertical-align:top;">:</td><td><div><table><tr><td><div>1</div></td></tr><tr><td><div>0</div></td></tr></table></div></td></tr></table></div></td></tr><tr><td style="font-weight:bold;vertical-align:top;">extension</td><td style="vertical-align:top;">:</td><td><div>html</div></td></tr><tr><td style="font-weight:bold;vertical-align:top;">folder</td><td style="vertical-align:top;">:</td><td><div>/home/www-data/web2py/applications/init/</div></td></tr><tr><td style="font-weight:bold;vertical-align:top;">function</td><td style="vertical-align:top;">:</td><td><div>index</div></td></tr><tr><td style="font-weight:bold;vertical-align:top;">global_settings</td><td style="vertical-align:top;">:</td><td><div><table><tr><td style="font-weight:bold;vertical-align:top;">app_folders</td><td style="vertical-align:top;">:</td><td><div>set([&#x27;/home/www-data/web2py/applications/admin/&#x27;, &#x27;/home/www-data/web2py/applications/init/&#x27;])</div></td></tr><tr><td style="font-weight:bold;vertical-align:top;">applications_parent</td><td style="vertical-align:top;">:</td><td><div>/home/www-data/web2py</div></td></tr><tr><td style="font-weight:bold;vertical-align:top;">db_sessions</td><td style="vertical-align:top;">:</td><td><div>set([])</div></td></tr><tr><td style="font-weight:bold;vertical-align:top;">debugging</td><td style="vertical-align:top;">:</td><td><div>True</div></td></tr><tr><td style="font-weight:bold;vertical-align:top;">gluon_parent</td><td style="vertical-align:top;">:</td><td><div>/home/www-data/web2py</div></td></tr><tr><td style="font-weight:bold;vertical-align:top;">is_jython</td><td style="vertical-align:top;">:</td><td><div>False</div></td></tr><tr><td style="font-weight:bold;vertical-align:top;">is_pypy</td><td style="vertical-align:top;">:</td><td><div>False</div></td></tr><tr><td style="font-weight:bold;vertical-align:top;">is_source</td><td style="vertical-align:top;">:</td><td><div>True</div></td></tr><tr><td style="font-weight:bold;vertical-align:top;">local_hosts</td><td style="vertical-align:top;">:</td><td><div><table><tr><td><div>devbox</div></td></tr><tr><td><div>::1</div></td></tr><tr><td><div>127.0.1.1</div></td></tr><tr><td><div>::ffff:127.0.0.1</div></td></tr><tr><td><div>127.0.0.1</div></td></tr></table></div></td></tr><tr><td style="font-weight:bold;vertical-align:top;">web2py_version</td><td style="vertical-align:top;">:</td><td><div>2.12.3-stable+timestamp.2015.08.19.00.18.03</div></td></tr></table></div></td></tr><tr><td style="font-weight:bold;vertical-align:top;">is_https</td><td style="vertical-align:top;">:</td><td><div>True</div></td></tr><tr><td style="font-weight:bold;vertical-align:top;">is_local</td><td style="vertical-align:top;">:</td><td><div>False</div></td></tr><tr><td style="font-weight:bold;vertical-align:top;">is_restful</td><td style="vertical-align:top;">:</td><td><div>False</div></td></tr><tr><td style="font-weight:bold;vertical-align:top;">is_sheduler</td><td style="vertical-align:top;">:</td><td><div>None</div></td></tr><tr><td style="font-weight:bold;vertical-align:top;">is_shell</td><td style="vertical-align:top;">:</td><td><div>None</div></td></tr><tr><td style="font-weight:bold;vertical-align:top;">now</td><td style="vertical-align:top;">:</td><td><div>datetime.datetime(2015, 9, 3, 15, 2, 57, 946356)</div></td></tr><tr><td style="font-weight:bold;vertical-align:top;">raw_args</td><td style="vertical-align:top;">:</td><td><div></div></td></tr><tr><td style="font-weight:bold;vertical-align:top;">raw_extension</td><td style="vertical-align:top;">:</td><td><div>None</div></td></tr><tr><td style="font-weight:bold;vertical-align:top;">url</td><td style="vertical-align:top;">:</td><td><div>/init/dashboard</div></td></tr><tr><td style="font-weight:bold;vertical-align:top;">utcnow</td><td style="vertical-align:top;">:</td><td><div>datetime.datetime(2015, 9, 3, 22, 2, 57, 946369)</div></td></tr><tr><td style="font-weight:bold;vertical-align:top;">wsgi</td><td style="vertical-align:top;">:</td><td><div>&lt;gluon.main.LazyWSGI object at 0x7f91f1a7ae50&gt;</div></td></tr></table></div>'
tRp58
sS'frames'
p59
(lp60
(dp61
S'file'
p62
S'/home/www-data/web2py/gluon/restricted.py'
p63
sS'dump'
p64
(dp65
S'environment'
p66
S"{'A': <class 'gluon.html.A'>, 'ANY_OF': <class 'gluon.validators.ANY_OF'>, 'ASSIGNJS': <function ASSIGNJS>, 'AppConfig': <function AppConfig>, 'Auth': <class 'gluon.tools.Auth'>, 'B': <class 'gluon.html.B'>, 'BEAUTIFY': <class 'gluon.html.BEAUTIFY'>, 'BODY': <class 'gluon.html.BODY'>, 'BR': <class 'gluon.html.BR'>, 'BUTTON': <class 'gluon.html.BUTTON'>, ...}"
p67
sS'ccode'
p68
S'<code object <module> at 0x7f91f1d1b8b0, file "/...cations/init/views/dashboard/index.html", line 1>'
p69
ssS'lnum'
p70
I227
sS'lines'
p71
(dp72
I224
S'            ccode = code'
p73
sI225
S'        else:'
p74
sI226
S'            ccode = compile2(code, layer)'
p75
sI227
S'        exec ccode in environment'
p76
sI228
S'    except HTTP:'
p77
sI229
S'        raise'
p78
sI230
S'    except RestrictedError:'
p79
sI231
S'        # do not encapsulate (obfuscate) the original RestrictedError'
p80
sI222
S'    try:'
p81
sI223
S'        if isinstance(code, types.CodeType):'
p82
ssS'call'
p83
S'(code=r"response.write(\'<!DOCTYPE html>\\n<!--[if (gt IE ...e.write(\'\\n\\n  </body>\\n</html>\\n\', escape=False)", environment={\'A\': <class \'gluon.html.A\'>, \'ANY_OF\': <class \'gluon.validators.ANY_OF\'>, \'ASSIGNJS\': <function ASSIGNJS>, \'AppConfig\': <function AppConfig>, \'Auth\': <class \'gluon.tools.Auth\'>, \'B\': <class \'gluon.html.B\'>, \'BEAUTIFY\': <class \'gluon.html.BEAUTIFY\'>, \'BODY\': <class \'gluon.html.BODY\'>, \'BR\': <class \'gluon.html.BR\'>, \'BUTTON\': <class \'gluon.html.BUTTON\'>, ...}, layer=\'/home/www-data/web2py/applications/init/views/dashboard/index.html\')'
p84
sS'func'
p85
S'restricted'
p86
sa(dp87
g62
S'/home/www-data/web2py/applications/init/views/dashboard/index.html'
p88
sg64
(dp89
S'console'
p90
S'undefined'
p91
sS'error'
p92
g91
ssg70
I89
sg71
(dp93
I96
S'response.write(\'"></script>\\n<!--\\n<script src="\', escape=False)'
p94
sI97
S"response.write(URL('static','d3/js/bootstrap.js'))"
p95
sI98
S'response.write(\'"></script>\\n    <script src="\', escape=False)'
p96
sI99
S"response.write(URL('static','d3/js/jquery-1.10.2.min.js'))"
p97
sI80
S"    response.write('\\n        </div>\\n      ', escape=False)"
p98
sI81
S'    pass'
p99
sI82
S'response.write(\'\\n\\n      <div class="\', escape=False)'
p100
sI83
S'response.write(middle_column)'
p101
sI84
S'response.write(\'">\\n        \', escape=False)'
p102
sI85
S"response.write('\\n        ', escape=False)"
p103
sI86
S'response.write(\'\\n\\n  <link rel="stylesheet" type="text/css" href="\', escape=False)'
p104
sI87
S"response.write(URL('static','keen/assets/css/keen-dashboards.css'))"
p105
sI88
S'response.write(\'" />\\n\\n\\n\\n    <div class="row" style="padding-top: 15px;">\\n\\n     <div class="col-sm-6">\\n\\n        <div class="row">\\n          <div class="col-sm-12">\\n            <div class="chart-wrapper">\\n              <div class="chart-title">\\n                               <i class="fa fa-lg fa-users"> User Sentiment</i>\\n              </div>\\n              <div class="chart-stage">\\n        <p id="pie" style="text-align: center; font-size: 16px;"></p>\\n              </div>\\n            </div>\\n          </div>\\n        </div>\\n\\n        <div class="row">\\n          <div class="col-sm-12">\\n            <div class="chart-wrapper">\\n              <div class="chart-title">\\n                <i class="fa fa-lg fa-twitter"> Twitter Timeline</i>\\n              </div>\\n              <div class="chart-stage">\\n      <div>\\n          \', escape=False)'
p106
sI89
S'response.write(T(timeline))'
p107
sI90
S'response.write(\'\\n      </div>\\n                </div>\\n            </div>\\n          </div>\\n        </div>\\n\\n      </div>\\n        \\n      <div class="col-sm-6">\\n        <div class="chart-wrapper">\\n          <div class="chart-title">\\n           <i class="fa fa-lg fa-slack"> Hashtag Distribution</i>\\n          </div>\\n          <div class="chart-stage">\\n      <p id="bubbles" style="text-align: center; font-size: 16px;"></p>\\n          </div>\\n        </div>\\n      </div>\\n\\n\\n    </div>\\n  </div>\\n\\n\\n<script src="\', escape=False)'
p108
sI91
S"response.write(URL('static','d3/js/d3.v3.min.js'))"
p109
sI92
S'response.write(\'"></script>\\n<script src="\', escape=False)'
p110
sI93
S"response.write(URL('static','d3/js/fvc.js'))"
p111
sI94
S'response.write(\'"></script>\\n<script src="\', escape=False)'
p112
sI95
S"response.write(URL('static','d3/js/aggcount.js'))"
p113
ssg83
S'()'
p114
sg85
S'<module>'
p115
sa(dp116
g62
S'/home/www-data/web2py/gluon/globals.py'
p117
sg64
(dp118
S'self.body.write'
p119
S'<built-in method write of cStringIO.StringO object>'
p120
sS'self.body'
p121
S'<cStringIO.StringO object>'
p122
sS'self'
p123
S"<Storage {'body': <cStringIO.StringO object at 0...0x7f91f1fb0e60>, 'view': 'dashboard/index.html'}>"
p124
sS'global xmlescape'
p125
S'<function xmlescape>'
p126
sS'data'
p127
S"<lazyT '[u\\'RT @springcentral: Preconference tra...jE8UDVA  #python #code #coding @livecodingtv\\']'>"
p128
ssg70
I425
sg71
(dp129
I420
S''
sI421
S'    def write(self, data, escape=True):'
p130
sI422
S'        if not escape:'
p131
sI423
S'            self.body.write(str(data))'
p132
sI424
S'        else:'
p133
sI425
S'            self.body.write(xmlescape(data))'
p134
sI426
S''
sI427
S'    def render(self, *a, **b):'
p135
sI428
S'        from compileapp import run_view_in'
p136
sI429
S'        if len(a) > 2:'
p137
ssg83
S"(self=<Storage {'body': <cStringIO.StringO object at 0...0x7f91f1fb0e60>, 'view': 'dashboard/index.html'}>, data=<lazyT '[u\\'RT @springcentral: Preconference tra...jE8UDVA  #python #code #coding @livecodingtv\\']'>, escape=True)"
p138
sg85
S'write'
p139
sa(dp140
g62
S'/home/www-data/web2py/gluon/html.py'
p141
sg64
(dp142
S'data'
p143
S"<lazyT '[u\\'RT @springcentral: Preconference tra...jE8UDVA  #python #code #coding @livecodingtv\\']'>"
p144
sS'data.xml'
p145
S"<bound method lazyT.xml of <lazyT '[u\\'RT @sprin...E8UDVA  #python #code #coding @livecodingtv\\']'>>"
p146
ssg70
I130
sg71
(dp147
I128
S'    # first try the xml function'
p148
sI129
S"    if hasattr(data, 'xml') and callable(data.xml):"
p149
sI130
S'        return data.xml()'
p150
sI131
S''
sI132
S'    # otherwise, make it a string'
p151
sI133
S'    if not isinstance(data, (str, unicode)):'
p152
sI134
S'        data = str(data)'
p153
sI125
S'        quote: optional (default False)'
p154
sI126
S'    """'
p155
sI127
S''
ssg83
S"(data=<lazyT '[u\\'RT @springcentral: Preconference tra...jE8UDVA  #python #code #coding @livecodingtv\\']'>, quote=True)"
p156
sg85
S'xmlescape'
p157
sa(dp158
g62
S'/home/www-data/web2py/gluon/languages.py'
p159
sg64
(dp160
S'builtinstr'
p161
S"<type 'str'>"
p162
sS'self'
p163
S"<lazyT '[u\\'RT @springcentral: Preconference tra...jE8UDVA  #python #code #coding @livecodingtv\\']'>"
p164
sS'global escape'
p165
S'<function escape>'
p166
sS'self.M'
p167
S'False'
p168
ssg70
I423
sg71
(dp169
I418
S''
sI419
S'    def __len__(self):'
p170
sI420
S'        return len(str(self))'
p171
sI421
S''
sI422
S'    def xml(self):'
p172
sI423
S'        return str(self) if self.M else escape(str(self))'
p173
sI424
S''
sI425
S'    def encode(self, *a, **b):'
p174
sI426
S'        return str(self).encode(*a, **b)'
p175
sI427
S''
ssg83
S"(self=<lazyT '[u\\'RT @springcentral: Preconference tra...jE8UDVA  #python #code #coding @livecodingtv\\']'>)"
p176
sg85
S'xml'
p177
sa(dp178
g62
S'/home/www-data/web2py/gluon/languages.py'
p179
sg64
(dp180
S'self.T.translate'
p181
S'<bound method translator.translate of <gluon.languages.translator object>>'
p182
sS'self.s'
p183
g45
sS'self'
p184
S"<lazyT '[u\\'RT @springcentral: Preconference tra...jE8UDVA  #python #code #coding @livecodingtv\\']'>"
p185
sS'self.T'
p186
S'<gluon.languages.translator object>'
p187
sS'self.m'
p188
S'[u\'RT @springcentral: Preconference training at @...ons with #cloudfoundry is SOLD OUT @wattersjames\', u\'RT @cloudfoundry: Powered by #cloudfoundry -&g...SaaS &amp; hybrid\\u2014fit together: http:\\u2026\', u\'RT @dasikakn: A @pivotal moment  https://t.co/VocXdNu2ls\', u\'RT @dave_dyas: Agile enabled by #CloudNative p... http://t.co/L74WMttu9I http://t.co/d1VyJi\\u2026\', u\'RT @CtlSaito: .@CenturyLink makes cloud-native...CF http://t.co/62Pdl0iwvp http://t.co/MIGn5dFHuq\', u"RT @IBMcloud: Here\'s how #IoT, #cloud and #Big...reshape vertical markets: http://t.co/pXjyrOdstw", u\'RT @starbuxman: Check out http://t.co/Isn5mkYd...ngCloudOSS snapshots light up for Sleuth, \\u2026\', u\'RT @AlexLuttschyn: Proud to see the positive i...e @pivotal @pivotallabs  https://t.co/xf1HIKYgpJ\', u\'RT @jctbmwi8: All I can say is Wow Wow @pivota...drew @comcast CF Tech Workshop http://t.co\\u2026\', u\'RT @wattersjames: Great with APIs? We are in a...ght now check it out: https://t.co/9UQ9xDf\\u2026\', u\'RT @cloudfoundryorg: Q&amp;A with @KrisRajana,...undry family, Biarca.io: https://t.co/J9w6MtZxOq\', u\'RT @cote: Nice presentation on how @pivotalcf ...s DevOps, from @cdavisafc http://t.co/urOJfOy0Is\', u\'RT @pivotal: Thanks a $100M to our team, custs...3IeebVX #VMworld #pivotalmoment http://t.c\\u2026\', u\'RT @Sufyaan_Kazi: Hands-On with Pivotal - spri...p://t.co/PxjBrMII8H #microservices @spring\\u2026\', u\'RT @rwelches: #yaas has started and it is running on @cloudfoundry  https://t.co/56XnaCn4oH\', u\'RT @r_arni: Are you building rich data driven ...a. New release train out!\\n\\nhttp://t.co/I\\u2026\', u\'All About Concourse For Continuous Integration http://t.co/Q2VnAJLGfe #pivotal\', u\'RT @bpatrick001: Great talk with @ActiveState ... great stories including @CapitalOne @ross\\u2026\', u\'RT @storming: Join us for the first @cloudfoun... Started" documentation! https://t.co/4fBkUTVYVy\', u\'RT @r_arni: @cloudfoundry @littleidea doing wh...kvU9b\\nI hope we get the session recording soon.\', ...]'
p189
ssg70
I383
sg71
(dp190
I384
S''
sI385
S'    def __eq__(self, other):'
p191
sI386
S'        return str(self) == str(other)'
p192
sI387
S''
sI378
S'    def __repr__(self):'
p193
sI379
S'        return "<lazyT %s>" % (repr(Utf8(self.m)), )'
p194
sI380
S''
sI381
S'    def __str__(self):'
p195
sI382
S'        return str(self.T.apply_filter(self.m, self.s, self.f, self.t) if self.M else'
p196
sI383
S'                   self.T.translate(self.m, self.s))'
p197
ssg83
S"(self=<lazyT '[u\\'RT @springcentral: Preconference tra...jE8UDVA  #python #code #coding @livecodingtv\\']'>)"
p198
sg85
g28
sa(dp199
g62
S'/home/www-data/web2py/gluon/languages.py'
p200
sg64
(dp201
S'self'
p202
S'<gluon.languages.translator object>'
p203
sS'self.get_t'
p204
S'<bound method translator.get_t of <gluon.languages.translator object>>'
p205
sS'message'
p206
S'[u\'RT @springcentral: Preconference training at @...ons with #cloudfoundry is SOLD OUT @wattersjames\', u\'RT @cloudfoundry: Powered by #cloudfoundry -&g...SaaS &amp; hybrid\\u2014fit together: http:\\u2026\', u\'RT @dasikakn: A @pivotal moment  https://t.co/VocXdNu2ls\', u\'RT @dave_dyas: Agile enabled by #CloudNative p... http://t.co/L74WMttu9I http://t.co/d1VyJi\\u2026\', u\'RT @CtlSaito: .@CenturyLink makes cloud-native...CF http://t.co/62Pdl0iwvp http://t.co/MIGn5dFHuq\', u"RT @IBMcloud: Here\'s how #IoT, #cloud and #Big...reshape vertical markets: http://t.co/pXjyrOdstw", u\'RT @starbuxman: Check out http://t.co/Isn5mkYd...ngCloudOSS snapshots light up for Sleuth, \\u2026\', u\'RT @AlexLuttschyn: Proud to see the positive i...e @pivotal @pivotallabs  https://t.co/xf1HIKYgpJ\', u\'RT @jctbmwi8: All I can say is Wow Wow @pivota...drew @comcast CF Tech Workshop http://t.co\\u2026\', u\'RT @wattersjames: Great with APIs? We are in a...ght now check it out: https://t.co/9UQ9xDf\\u2026\', u\'RT @cloudfoundryorg: Q&amp;A with @KrisRajana,...undry family, Biarca.io: https://t.co/J9w6MtZxOq\', u\'RT @cote: Nice presentation on how @pivotalcf ...s DevOps, from @cdavisafc http://t.co/urOJfOy0Is\', u\'RT @pivotal: Thanks a $100M to our team, custs...3IeebVX #VMworld #pivotalmoment http://t.c\\u2026\', u\'RT @Sufyaan_Kazi: Hands-On with Pivotal - spri...p://t.co/PxjBrMII8H #microservices @spring\\u2026\', u\'RT @rwelches: #yaas has started and it is running on @cloudfoundry  https://t.co/56XnaCn4oH\', u\'RT @r_arni: Are you building rich data driven ...a. New release train out!\\n\\nhttp://t.co/I\\u2026\', u\'All About Concourse For Continuous Integration http://t.co/Q2VnAJLGfe #pivotal\', u\'RT @bpatrick001: Great talk with @ActiveState ... great stories including @CapitalOne @ross\\u2026\', u\'RT @storming: Join us for the first @cloudfoun... Started" documentation! https://t.co/4fBkUTVYVy\', u\'RT @r_arni: @cloudfoundry @littleidea doing wh...kvU9b\\nI hope we get the session recording soon.\', ...]'
p207
ssg70
I929
sg71
(dp208
I928
S'        message = get_from_cache(self.cache, message,'
p209
sI929
S'                                 lambda: self.get_t(message))'
p210
sI930
S'        if symbols or symbols == 0 or symbols == "":'
p211
sI931
S'            if isinstance(symbols, dict):'
p212
sI932
S'                symbols.update('
p213
sI933
S'                    (key, str(value).translate(ttab_in))'
p214
sI924
S'    def translate(self, message, symbols):'
p215
sI925
S'        """'
p216
sI926
S'        Gets cached translated message with inserted parameters(symbols)'
p217
sI927
S'        """'
p218
ssg83
S'(self=<gluon.languages.translator object>, message=[u\'RT @springcentral: Preconference training at @...ons with #cloudfoundry is SOLD OUT @wattersjames\', u\'RT @cloudfoundry: Powered by #cloudfoundry -&g...SaaS &amp; hybrid\\u2014fit together: http:\\u2026\', u\'RT @dasikakn: A @pivotal moment  https://t.co/VocXdNu2ls\', u\'RT @dave_dyas: Agile enabled by #CloudNative p... http://t.co/L74WMttu9I http://t.co/d1VyJi\\u2026\', u\'RT @CtlSaito: .@CenturyLink makes cloud-native...CF http://t.co/62Pdl0iwvp http://t.co/MIGn5dFHuq\', u"RT @IBMcloud: Here\'s how #IoT, #cloud and #Big...reshape vertical markets: http://t.co/pXjyrOdstw", u\'RT @starbuxman: Check out http://t.co/Isn5mkYd...ngCloudOSS snapshots light up for Sleuth, \\u2026\', u\'RT @AlexLuttschyn: Proud to see the positive i...e @pivotal @pivotallabs  https://t.co/xf1HIKYgpJ\', u\'RT @jctbmwi8: All I can say is Wow Wow @pivota...drew @comcast CF Tech Workshop http://t.co\\u2026\', u\'RT @wattersjames: Great with APIs? We are in a...ght now check it out: https://t.co/9UQ9xDf\\u2026\', u\'RT @cloudfoundryorg: Q&amp;A with @KrisRajana,...undry family, Biarca.io: https://t.co/J9w6MtZxOq\', u\'RT @cote: Nice presentation on how @pivotalcf ...s DevOps, from @cdavisafc http://t.co/urOJfOy0Is\', u\'RT @pivotal: Thanks a $100M to our team, custs...3IeebVX #VMworld #pivotalmoment http://t.c\\u2026\', u\'RT @Sufyaan_Kazi: Hands-On with Pivotal - spri...p://t.co/PxjBrMII8H #microservices @spring\\u2026\', u\'RT @rwelches: #yaas has started and it is running on @cloudfoundry  https://t.co/56XnaCn4oH\', u\'RT @r_arni: Are you building rich data driven ...a. New release train out!\\n\\nhttp://t.co/I\\u2026\', u\'All About Concourse For Continuous Integration http://t.co/Q2VnAJLGfe #pivotal\', u\'RT @bpatrick001: Great talk with @ActiveState ... great stories including @CapitalOne @ross\\u2026\', u\'RT @storming: Join us for the first @cloudfoun... Started" documentation! https://t.co/4fBkUTVYVy\', u\'RT @r_arni: @cloudfoundry @littleidea doing wh...kvU9b\\nI hope we get the session recording soon.\', ...], symbols={})'
p219
sg85
S'translate'
p220
sa(dp221
g62
S'/home/www-data/web2py/gluon/languages.py'
p222
sg64
(dp223
S'val'
p224
S'[u\'RT @springcentral: Preconference training at @...ons with #cloudfoundry is SOLD OUT @wattersjames\', u\'RT @cloudfoundry: Powered by #cloudfoundry -&g...SaaS &amp; hybrid\\u2014fit together: http:\\u2026\', u\'RT @dasikakn: A @pivotal moment  https://t.co/VocXdNu2ls\', u\'RT @dave_dyas: Agile enabled by #CloudNative p... http://t.co/L74WMttu9I http://t.co/d1VyJi\\u2026\', u\'RT @CtlSaito: .@CenturyLink makes cloud-native...CF http://t.co/62Pdl0iwvp http://t.co/MIGn5dFHuq\', u"RT @IBMcloud: Here\'s how #IoT, #cloud and #Big...reshape vertical markets: http://t.co/pXjyrOdstw", u\'RT @starbuxman: Check out http://t.co/Isn5mkYd...ngCloudOSS snapshots light up for Sleuth, \\u2026\', u\'RT @AlexLuttschyn: Proud to see the positive i...e @pivotal @pivotallabs  https://t.co/xf1HIKYgpJ\', u\'RT @jctbmwi8: All I can say is Wow Wow @pivota...drew @comcast CF Tech Workshop http://t.co\\u2026\', u\'RT @wattersjames: Great with APIs? We are in a...ght now check it out: https://t.co/9UQ9xDf\\u2026\', u\'RT @cloudfoundryorg: Q&amp;A with @KrisRajana,...undry family, Biarca.io: https://t.co/J9w6MtZxOq\', u\'RT @cote: Nice presentation on how @pivotalcf ...s DevOps, from @cdavisafc http://t.co/urOJfOy0Is\', u\'RT @pivotal: Thanks a $100M to our team, custs...3IeebVX #VMworld #pivotalmoment http://t.c\\u2026\', u\'RT @Sufyaan_Kazi: Hands-On with Pivotal - spri...p://t.co/PxjBrMII8H #microservices @spring\\u2026\', u\'RT @rwelches: #yaas has started and it is running on @cloudfoundry  https://t.co/56XnaCn4oH\', u\'RT @r_arni: Are you building rich data driven ...a. New release train out!\\n\\nhttp://t.co/I\\u2026\', u\'All About Concourse For Continuous Integration http://t.co/Q2VnAJLGfe #pivotal\', u\'RT @bpatrick001: Great talk with @ActiveState ... great stories including @CapitalOne @ross\\u2026\', u\'RT @storming: Join us for the first @cloudfoun... Started" documentation! https://t.co/4fBkUTVYVy\', u\'RT @r_arni: @cloudfoundry @littleidea doing wh...kvU9b\\nI hope we get the session recording soon.\', ...]'
p225
sS'lang_dict.get'
p226
S'<built-in method get of dict object>'
p227
sS'result'
p228
g91
sS'lang_dict'
p229
S'{\' Home\': \' Home\', \' Login\': \' Login\', \' Logout\': \' Logout\', \' Recommended\': \' Recommended\', \' Trends\': \' Trends\', \'%Y-%m-%d\': \'%Y-%m-%d\', \'%Y-%m-%d %H:%M:%S\': \'%Y-%m-%d %H:%M:%S\', \'@markmin\\x01An error occured, please [[reload %s]] the page\': \'An error occured, please <a href="%s">reload</a> the page\', \'About\': \'About\', \'Are you sure you want to delete this object?\': \'Are you sure you want to delete this object?\', ...}'
p230
ssg70
I136
sg71
(dp231
I131
S''
sI132
S'def get_from_cache(cache, val, fun):'
p232
sI133
S'    lang_dict, lock = cache'
p233
sI134
S'    lock.acquire()'
p234
sI135
S'    try:'
p235
sI136
S'        result = lang_dict.get(val)'
p236
sI137
S'    finally:'
p237
sI138
S'        lock.release()'
p238
sI139
S'    if result:'
p239
sI140
S'        return result'
p240
ssg83
S'(cache=({\' Home\': \' Home\', \' Login\': \' Login\', \' Logout\': \' Logout\', \' Recommended\': \' Recommended\', \' Trends\': \' Trends\', \'%Y-%m-%d\': \'%Y-%m-%d\', \'%Y-%m-%d %H:%M:%S\': \'%Y-%m-%d %H:%M:%S\', \'@markmin\\x01An error occured, please [[reload %s]] the page\': \'An error occured, please <a href="%s">reload</a> the page\', \'About\': \'About\', \'Are you sure you want to delete this object?\': \'Are you sure you want to delete this object?\', ...}, <_RLock owner=None count=0>), val=[u\'RT @springcentral: Preconference training at @...ons with #cloudfoundry is SOLD OUT @wattersjames\', u\'RT @cloudfoundry: Powered by #cloudfoundry -&g...SaaS &amp; hybrid\\u2014fit together: http:\\u2026\', u\'RT @dasikakn: A @pivotal moment  https://t.co/VocXdNu2ls\', u\'RT @dave_dyas: Agile enabled by #CloudNative p... http://t.co/L74WMttu9I http://t.co/d1VyJi\\u2026\', u\'RT @CtlSaito: .@CenturyLink makes cloud-native...CF http://t.co/62Pdl0iwvp http://t.co/MIGn5dFHuq\', u"RT @IBMcloud: Here\'s how #IoT, #cloud and #Big...reshape vertical markets: http://t.co/pXjyrOdstw", u\'RT @starbuxman: Check out http://t.co/Isn5mkYd...ngCloudOSS snapshots light up for Sleuth, \\u2026\', u\'RT @AlexLuttschyn: Proud to see the positive i...e @pivotal @pivotallabs  https://t.co/xf1HIKYgpJ\', u\'RT @jctbmwi8: All I can say is Wow Wow @pivota...drew @comcast CF Tech Workshop http://t.co\\u2026\', u\'RT @wattersjames: Great with APIs? We are in a...ght now check it out: https://t.co/9UQ9xDf\\u2026\', u\'RT @cloudfoundryorg: Q&amp;A with @KrisRajana,...undry family, Biarca.io: https://t.co/J9w6MtZxOq\', u\'RT @cote: Nice presentation on how @pivotalcf ...s DevOps, from @cdavisafc http://t.co/urOJfOy0Is\', u\'RT @pivotal: Thanks a $100M to our team, custs...3IeebVX #VMworld #pivotalmoment http://t.c\\u2026\', u\'RT @Sufyaan_Kazi: Hands-On with Pivotal - spri...p://t.co/PxjBrMII8H #microservices @spring\\u2026\', u\'RT @rwelches: #yaas has started and it is running on @cloudfoundry  https://t.co/56XnaCn4oH\', u\'RT @r_arni: Are you building rich data driven ...a. New release train out!\\n\\nhttp://t.co/I\\u2026\', u\'All About Concourse For Continuous Integration http://t.co/Q2VnAJLGfe #pivotal\', u\'RT @bpatrick001: Great talk with @ActiveState ... great stories including @CapitalOne @ross\\u2026\', u\'RT @storming: Join us for the first @cloudfoun... Started" documentation! https://t.co/4fBkUTVYVy\', u\'RT @r_arni: @cloudfoundry @littleidea doing wh...kvU9b\\nI hope we get the session recording soon.\', ...], fun=<function <lambda>>)'
p241
sg85
S'get_from_cache'
p242
sasS'pyver'
p243
S'Python 2.7.6: /usr/bin/python (prefix: /usr)'
p244
sS'session'
p245
g57
(S's\xfb\x06\x00\x00<div><table><tr><td style="font-weight:bold;vertical-align:top;">JSON</td><td style="vertical-align:top;">:</td><td><div><table><tr><td style="font-weight:bold;vertical-align:top;">oauth_token</td><td style="vertical-align:top;">:</td><td><div>2927712042-kpRDLAz0BEGt9tM6aRZqxdJW5REc1ufLbMTf5Yp</div></td></tr><tr><td style="font-weight:bold;vertical-align:top;">oauth_token_secret</td><td style="vertical-align:top;">:</td><td><div>wSZqg9lFSadjfMg6tvCbFD25F9HtqGqf8NpL9RfIuDALf</div></td></tr><tr><td style="font-weight:bold;vertical-align:top;">screen_name</td><td style="vertical-align:top;">:</td><td><div>P3Geek</div></td></tr><tr><td style="font-weight:bold;vertical-align:top;">user_id</td><td style="vertical-align:top;">:</td><td><div>2927712042</div></td></tr><tr><td style="font-weight:bold;vertical-align:top;">x_auth_expires</td><td style="vertical-align:top;">:</td><td><div>0</div></td></tr></table></div></td></tr><tr><td style="font-weight:bold;vertical-align:top;">OAUTH_TOKEN</td><td style="vertical-align:top;">:</td><td><div>T6q9egAAAAAAhUchAAABT5U1jpc</div></td></tr><tr><td style="font-weight:bold;vertical-align:top;">OAUTH_TOKEN_SECRET</td><td style="vertical-align:top;">:</td><td><div>bwURNqvtGIl62vzoXW2oiB06L1zJKIsC</div></td></tr><tr><td style="font-weight:bold;vertical-align:top;">SCREENNAME</td><td style="vertical-align:top;">:</td><td><div>P3Geek</div></td></tr><tr><td style="font-weight:bold;vertical-align:top;">USER_OAUTH_TOKEN</td><td style="vertical-align:top;">:</td><td><div>2927712042-kpRDLAz0BEGt9tM6aRZqxdJW5REc1ufLbMTf5Yp</div></td></tr><tr><td style="font-weight:bold;vertical-align:top;">USER_OAUTH_TOKEN_SECRET</td><td style="vertical-align:top;">:</td><td><div>wSZqg9lFSadjfMg6tvCbFD25F9HtqGqf8NpL9RfIuDALf</div></td></tr></table></div>'
tRp246
sS'etype'
p247
S"<type 'exceptions.TypeError'>"
p248
sS'date'
p249
S'Thu Sep  3 15:02:58 2015'
p250
sS'response'
p251
g57
(S'sC$\x00\x00<div><table><tr><td style="font-weight:bold;vertical-align:top;">body</td><td style="vertical-align:top;">:</td><td><div>&lt;cStringIO.StringO object at 0x7f91cd9667a0&gt;</div></td></tr><tr><td style="font-weight:bold;vertical-align:top;">cookies</td><td style="vertical-align:top;">:</td><td><div><table><tr><td style="font-weight:bold;vertical-align:top;">session_id_init</td><td style="vertical-align:top;">:</td><td><div>192.168.56.1-0f4422b9-c67c-40e5-80f5-550febb1f441<table><tr><td style="font-weight:bold;vertical-align:top;">comment</td><td style="vertical-align:top;">:</td><td><div></div></td></tr><tr><td style="font-weight:bold;vertical-align:top;">domain</td><td style="vertical-align:top;">:</td><td><div></div></td></tr><tr><td style="font-weight:bold;vertical-align:top;">expires</td><td style="vertical-align:top;">:</td><td><div></div></td></tr><tr><td style="font-weight:bold;vertical-align:top;">httponly</td><td style="vertical-align:top;">:</td><td><div></div></td></tr><tr><td style="font-weight:bold;vertical-align:top;">max-age</td><td style="vertical-align:top;">:</td><td><div></div></td></tr><tr><td style="font-weight:bold;vertical-align:top;">path</td><td style="vertical-align:top;">:</td><td><div>/</div></td></tr><tr><td style="font-weight:bold;vertical-align:top;">secure</td><td style="vertical-align:top;">:</td><td><div></div></td></tr><tr><td style="font-weight:bold;vertical-align:top;">version</td><td style="vertical-align:top;">:</td><td><div></div></td></tr></table></div></td></tr></table></div></td></tr><tr><td style="font-weight:bold;vertical-align:top;">delimiters</td><td style="vertical-align:top;">:</td><td><div><table><tr><td><div>{{</div></td></tr><tr><td><div>}}</div></td></tr></table></div></td></tr><tr><td style="font-weight:bold;vertical-align:top;">files</td><td style="vertical-align:top;">:</td><td><div><table><tr><td><div>/init/static/js/jquery.js</div></td></tr><tr><td><div>/init/static/css/calendar.css</div></td></tr><tr><td><div>/init/static/js/calendar.js</div></td></tr><tr><td><div>/init/static/js/web2py.js</div></td></tr></table></div></td></tr><tr><td style="font-weight:bold;vertical-align:top;">flash</td><td style="vertical-align:top;">:</td><td><div></div></td></tr><tr><td style="font-weight:bold;vertical-align:top;">form_label_separator</td><td style="vertical-align:top;">:</td><td><div></div></td></tr><tr><td style="font-weight:bold;vertical-align:top;">formstyle</td><td style="vertical-align:top;">:</td><td><div>bootstrap3_inline</div></td></tr><tr><td style="font-weight:bold;vertical-align:top;">generic_patterns</td><td style="vertical-align:top;">:</td><td><div><table></table></div></td></tr><tr><td style="font-weight:bold;vertical-align:top;">google_analytics_id</td><td style="vertical-align:top;">:</td><td><div>None</div></td></tr><tr><td style="font-weight:bold;vertical-align:top;">headers</td><td style="vertical-align:top;">:</td><td><div><table><tr><td style="font-weight:bold;vertical-align:top;">X-Powered-By</td><td style="vertical-align:top;">:</td><td><div>web2py</div></td></tr></table></div></td></tr><tr><td style="font-weight:bold;vertical-align:top;">logo</td><td style="vertical-align:top;">:</td><td><div><a class="navbar-brand" href="/" id="web2py-logo"><b>myDash</b></a></div></td></tr><tr><td style="font-weight:bold;vertical-align:top;">menu</td><td style="vertical-align:top;">:</td><td><div><table><tr><td><div><table><tr><td><div><i class="glyphicon glyphicon-home"></i> Home</div></td></tr><tr><td><div>False</div></td></tr><tr><td><div>/init/default/index</div></td></tr></table></div></td></tr><tr><td><div><table><tr><td><div><i class="glyphicon glyphicon-fire"></i> Trends</div></td></tr><tr><td><div>False</div></td></tr><tr><td><div>/init/trends/index</div></td></tr></table></div></td></tr><tr><td><div><table><tr><td><div><i class="glyphicon glyphicon-thumbs-up"></i> Recommended</div></td></tr><tr><td><div>False</div></td></tr><tr><td><div>/init/recommended/index</div></td></tr></table></div></td></tr></table></div></td></tr><tr><td style="font-weight:bold;vertical-align:top;">menu1</td><td style="vertical-align:top;">:</td><td><div><table><tr><td><div><table><tr><td><div>P3Geek</div></td></tr><tr><td><div>False</div></td></tr><tr><td><div>#</div></td></tr><tr><td><div><table><tr><td><div><table><tr><td><div>About</div></td></tr><tr><td><div>False</div></td></tr><tr><td><div>/init/about/index</div></td></tr></table></div></td></tr><tr><td><div><li class="divider"></li></div></td></tr><tr><td><div><table><tr><td><div>Profile</div></td></tr><tr><td><div>False</div></td></tr><tr><td><div>/init/profile/index</div></td></tr></table></div></td></tr><tr><td><div><table><tr><td><div>Settings</div></td></tr><tr><td><div>False</div></td></tr><tr><td><div>/init/settings/index</div></td></tr></table></div></td></tr><tr><td><div><li class="divider"></li></div></td></tr><tr><td><div><table><tr><td><div><i class="glyphicon glyphicon-log-out"></i> Logout</div></td></tr><tr><td><div>False</div></td></tr><tr><td><div>/init/default/logout</div></td></tr></table></div></td></tr></table></div></td></tr></table></div></td></tr></table></div></td></tr><tr><td style="font-weight:bold;vertical-align:top;">meta</td><td style="vertical-align:top;">:</td><td><div><table><tr><td style="font-weight:bold;vertical-align:top;">author</td><td style="vertical-align:top;">:</td><td><div>Your Name &lt;you@example.com&gt;</div></td></tr><tr><td style="font-weight:bold;vertical-align:top;">description</td><td style="vertical-align:top;">:</td><td><div>a cool new app</div></td></tr><tr><td style="font-weight:bold;vertical-align:top;">generator</td><td style="vertical-align:top;">:</td><td><div>Web2py Web Framework</div></td></tr><tr><td style="font-weight:bold;vertical-align:top;">keywords</td><td style="vertical-align:top;">:</td><td><div>web2py, python, framework</div></td></tr></table></div></td></tr><tr><td style="font-weight:bold;vertical-align:top;">models_to_run</td><td style="vertical-align:top;">:</td><td><div><table><tr><td><div>^\\w+\\.py$</div></td></tr><tr><td><div>^dashboard/\\w+\\.py$</div></td></tr><tr><td><div>^dashboard/index/\\w+\\.py$</div></td></tr></table></div></td></tr><tr><td style="font-weight:bold;vertical-align:top;">postprocessing</td><td style="vertical-align:top;">:</td><td><div><table></table></div></td></tr><tr><td style="font-weight:bold;vertical-align:top;">session_client</td><td style="vertical-align:top;">:</td><td><div>192.168.56.1</div></td></tr><tr><td style="font-weight:bold;vertical-align:top;">session_cookie_compression_level</td><td style="vertical-align:top;">:</td><td><div>None</div></td></tr><tr><td style="font-weight:bold;vertical-align:top;">session_cookie_expires</td><td style="vertical-align:top;">:</td><td><div>None</div></td></tr><tr><td style="font-weight:bold;vertical-align:top;">session_cookie_key</td><td style="vertical-align:top;">:</td><td><div>None</div></td></tr><tr><td style="font-weight:bold;vertical-align:top;">session_data_name</td><td style="vertical-align:top;">:</td><td><div>session_data_init</div></td></tr><tr><td style="font-weight:bold;vertical-align:top;">session_file</td><td style="vertical-align:top;">:</td><td><div>&lt;open file &#x27;/home/www-data/web2py/applications/init/sessions/097/0c5/192.168.56.1-0f4422b9-c67c-40e5-80f5-550febb1f441&#x27;, mode &#x27;rb+&#x27; at 0x7f91f1a07270&gt;</div></td></tr><tr><td style="font-weight:bold;vertical-align:top;">session_filename</td><td style="vertical-align:top;">:</td><td><div>/home/www-data/web2py/applications/init/sessions/192.168.56.1-0f4422b9-c67c-40e5-80f5-550febb1f441</div></td></tr><tr><td style="font-weight:bold;vertical-align:top;">session_hash</td><td style="vertical-align:top;">:</td><td><div>8d5c67187624123d4d7b1febf6b85178</div></td></tr><tr><td style="font-weight:bold;vertical-align:top;">session_id</td><td style="vertical-align:top;">:</td><td><div>192.168.56.1-0f4422b9-c67c-40e5-80f5-550febb1f441</div></td></tr><tr><td style="font-weight:bold;vertical-align:top;">session_id_name</td><td style="vertical-align:top;">:</td><td><div>session_id_init</div></td></tr><tr><td style="font-weight:bold;vertical-align:top;">session_locked</td><td style="vertical-align:top;">:</td><td><div>True</div></td></tr><tr><td style="font-weight:bold;vertical-align:top;">session_masterapp</td><td style="vertical-align:top;">:</td><td><div>init</div></td></tr><tr><td style="font-weight:bold;vertical-align:top;">session_new</td><td style="vertical-align:top;">:</td><td><div>False</div></td></tr><tr><td style="font-weight:bold;vertical-align:top;">session_storage_type</td><td style="vertical-align:top;">:</td><td><div>file</div></td></tr><tr><td style="font-weight:bold;vertical-align:top;">status</td><td style="vertical-align:top;">:</td><td><div>200</div></td></tr><tr><td style="font-weight:bold;vertical-align:top;">subtitle</td><td style="vertical-align:top;">:</td><td><div></div></td></tr><tr><td style="font-weight:bold;vertical-align:top;">title</td><td style="vertical-align:top;">:</td><td><div>Dashboard</div></td></tr><tr><td style="font-weight:bold;vertical-align:top;">view</td><td style="vertical-align:top;">:</td><td><div>dashboard/index.html</div></td></tr></table></div>'
tRp252
sS'locals'
p253
(dp254
S'fun'
p255
S'<function <lambda>>'
p256
sS'lock'
p257
S'<_RLock owner=None count=0>'
p258
sS'cache'
p259
S'({\' Home\': \' Home\', \' Login\': \' Login\', \' Logout\': \' Logout\', \' Recommended\': \' Recommended\', \' Trends\': \' Trends\', \'%Y-%m-%d\': \'%Y-%m-%d\', \'%Y-%m-%d %H:%M:%S\': \'%Y-%m-%d %H:%M:%S\', \'@markmin\\x01An error occured, please [[reload %s]] the page\': \'An error occured, please <a href="%s">reload</a> the page\', \'About\': \'About\', \'Are you sure you want to delete this object?\': \'Are you sure you want to delete this object?\', ...}, <_RLock owner=None count=0>)'
p260
sS'val'
p261
S'[u\'RT @springcentral: Preconference training at @...ons with #cloudfoundry is SOLD OUT @wattersjames\', u\'RT @cloudfoundry: Powered by #cloudfoundry -&g...SaaS &amp; hybrid\\u2014fit together: http:\\u2026\', u\'RT @dasikakn: A @pivotal moment  https://t.co/VocXdNu2ls\', u\'RT @dave_dyas: Agile enabled by #CloudNative p... http://t.co/L74WMttu9I http://t.co/d1VyJi\\u2026\', u\'RT @CtlSaito: .@CenturyLink makes cloud-native...CF http://t.co/62Pdl0iwvp http://t.co/MIGn5dFHuq\', u"RT @IBMcloud: Here\'s how #IoT, #cloud and #Big...reshape vertical markets: http://t.co/pXjyrOdstw", u\'RT @starbuxman: Check out http://t.co/Isn5mkYd...ngCloudOSS snapshots light up for Sleuth, \\u2026\', u\'RT @AlexLuttschyn: Proud to see the positive i...e @pivotal @pivotallabs  https://t.co/xf1HIKYgpJ\', u\'RT @jctbmwi8: All I can say is Wow Wow @pivota...drew @comcast CF Tech Workshop http://t.co\\u2026\', u\'RT @wattersjames: Great with APIs? We are in a...ght now check it out: https://t.co/9UQ9xDf\\u2026\', u\'RT @cloudfoundryorg: Q&amp;A with @KrisRajana,...undry family, Biarca.io: https://t.co/J9w6MtZxOq\', u\'RT @cote: Nice presentation on how @pivotalcf ...s DevOps, from @cdavisafc http://t.co/urOJfOy0Is\', u\'RT @pivotal: Thanks a $100M to our team, custs...3IeebVX #VMworld #pivotalmoment http://t.c\\u2026\', u\'RT @Sufyaan_Kazi: Hands-On with Pivotal - spri...p://t.co/PxjBrMII8H #microservices @spring\\u2026\', u\'RT @rwelches: #yaas has started and it is running on @cloudfoundry  https://t.co/56XnaCn4oH\', u\'RT @r_arni: Are you building rich data driven ...a. New release train out!\\n\\nhttp://t.co/I\\u2026\', u\'All About Concourse For Continuous Integration http://t.co/Q2VnAJLGfe #pivotal\', u\'RT @bpatrick001: Great talk with @ActiveState ... great stories including @CapitalOne @ross\\u2026\', u\'RT @storming: Join us for the first @cloudfoun... Started" documentation! https://t.co/4fBkUTVYVy\', u\'RT @r_arni: @cloudfoundry @littleidea doing wh...kvU9b\\nI hope we get the session recording soon.\', ...]'
p262
sS'lang_dict'
p263
S'{\' Home\': \' Home\', \' Login\': \' Login\', \' Logout\': \' Logout\', \' Recommended\': \' Recommended\', \' Trends\': \' Trends\', \'%Y-%m-%d\': \'%Y-%m-%d\', \'%Y-%m-%d %H:%M:%S\': \'%Y-%m-%d %H:%M:%S\', \'@markmin\\x01An error occured, please [[reload %s]] the page\': \'An error occured, please <a href="%s">reload</a> the page\', \'About\': \'About\', \'Are you sure you want to delete this object?\': \'Are you sure you want to delete this object?\', ...}'
p264
sssS'traceback'
p265
S'Traceback (most recent call last):\n  File "/home/www-data/web2py/gluon/restricted.py", line 227, in restricted\n    exec ccode in environment\n  File "/home/www-data/web2py/applications/init/views/dashboard/index.html", line 89, in <module>\n    return console.warn(error);\n  File "/home/www-data/web2py/gluon/globals.py", line 425, in write\n    self.body.write(xmlescape(data))\n  File "/home/www-data/web2py/gluon/html.py", line 130, in xmlescape\n    return data.xml()\n  File "/home/www-data/web2py/gluon/languages.py", line 423, in xml\n    return str(self) if self.M else escape(str(self))\n  File "/home/www-data/web2py/gluon/languages.py", line 383, in __str__\n    self.T.translate(self.m, self.s))\n  File "/home/www-data/web2py/gluon/languages.py", line 929, in translate\n    lambda: self.get_t(message))\n  File "/home/www-data/web2py/gluon/languages.py", line 136, in get_from_cache\n    result = lang_dict.get(val)\nTypeError: unhashable type: \'list\'\n'
p266
s.